L251 LINKER/LOCATER V4.66.93.0                                                          09/25/2023  21:38:02  PAGE 1


L251 LINKER/LOCATER V4.66.93.0, INVOKED BY:
C:\KEIL5\LOAD\C251\BIN\L251.EXE .\Objects\main.obj, .\Objects\LQ_ADC.obj, .\Objects\LQ_GPIO_EXIT.obj, .\Objects\LQ_GPIO_
>> KEY.obj, .\Objects\LQ_GPIO_LED.obj, .\Objects\LQ_I2C.obj, .\Objects\LQ_OLED096.obj, .\Objects\LQ_SPI.obj, .\Objects\L
>> Q_TIMER.obj, .\Objects\LQ_ICM20689.obj, .\Objects\LQ_MotorServo.obj, .\Objects\LQ_Encoder.obj, .\Objects\LQ_UART.obj,
>>  .\Objects\ANO_DT.obj, .\Objects\LQ_SOFTI2C.obj, .\Objects\LQ_PID.obj, .\Objects\LQ_dianci.obj TO .\Objects\LQdemo PR
>> INT (.\Listings\LQdemo.map) CASE REMOVEUNUSED CLASSES (EDATA (0X0-0X1FFF), HDATA (0X0-0X1FFF))


CPU MODE:     251 SOURCE MODE
INTR FRAME:   2 BYTES SAVED ON INTERRUPT
MEMORY MODEL: LARGE WITH FLOATING POINT ARITHMETIC


INPUT MODULES INCLUDED:
  .\Objects\main.obj (main)
         COMMENT TYPE 0: C251 V5.60.0
  .\Objects\LQ_ADC.obj (LQ_ADC)
         COMMENT TYPE 0: C251 V5.60.0
  .\Objects\LQ_GPIO_EXIT.obj (LQ_GPIO_EXIT)
         COMMENT TYPE 0: C251 V5.60.0
  .\Objects\LQ_GPIO_KEY.obj (LQ_GPIO_KEY)
         COMMENT TYPE 0: C251 V5.60.0
  .\Objects\LQ_GPIO_LED.obj (LQ_GPIO_LED)
         COMMENT TYPE 0: C251 V5.60.0
  .\Objects\LQ_I2C.obj (LQ_I2C)
         COMMENT TYPE 0: C251 V5.60.0
  .\Objects\LQ_OLED096.obj (LQ_OLED096)
         COMMENT TYPE 0: C251 V5.60.0
  .\Objects\LQ_SPI.obj (LQ_SPI)
         COMMENT TYPE 0: C251 V5.60.0
  .\Objects\LQ_TIMER.obj (LQ_TIMER)
         COMMENT TYPE 0: C251 V5.60.0
  .\Objects\LQ_ICM20689.obj (LQ_ICM20689)
         COMMENT TYPE 0: C251 V5.60.0
  .\Objects\LQ_MotorServo.obj (LQ_MotorServo)
         COMMENT TYPE 0: C251 V5.60.0
  .\Objects\LQ_Encoder.obj (LQ_Encoder)
         COMMENT TYPE 0: C251 V5.60.0
  .\Objects\LQ_UART.obj (LQ_UART)
         COMMENT TYPE 0: C251 V5.60.0
  .\Objects\ANO_DT.obj (ANO_DT)
         COMMENT TYPE 0: C251 V5.60.0
  .\Objects\LQ_SOFTI2C.obj (LQ_SOFTI2C)
         COMMENT TYPE 0: C251 V5.60.0
  .\Objects\LQ_PID.obj (LQ_PID)
         COMMENT TYPE 0: C251 V5.60.0
  .\Objects\LQ_dianci.obj (LQ_dianci)
         COMMENT TYPE 0: C251 V5.60.0
  C:\KEIL5\LOAD\C251\LIB\C2SFPL.LIB (?C?FPADD)
         COMMENT TYPE 0: A251 V4.69.6.0
  C:\KEIL5\LOAD\C251\LIB\C2SFPL.LIB (?C?FPMUL)
         COMMENT TYPE 0: A251 V4.69.6.0
  C:\KEIL5\LOAD\C251\LIB\C2SFPL.LIB (?C?FPDIV)
         COMMENT TYPE 0: A251 V4.69.6.0
  C:\KEIL5\LOAD\C251\LIB\C2SFPL.LIB (?C?FPCMP)
         COMMENT TYPE 0: A251 V4.69.6.0
  C:\KEIL5\LOAD\C251\LIB\C2SFPL.LIB (?C?FPNEG)
         COMMENT TYPE 0: A251 V4.69.6.0
  C:\KEIL5\LOAD\C251\LIB\C2SFPL.LIB (?C?FCAST)
         COMMENT TYPE 0: A251 V4.69.6.0
  C:\KEIL5\LOAD\C251\LIB\C2SFPL.LIB (?C?CASTF)
         COMMENT TYPE 0: A251 V4.69.6.0
  C:\KEIL5\LOAD\C251\LIB\C2SFPL.LIB (SPRINTF)
         COMMENT TYPE 0: A251 V4.69.6.0
  C:\KEIL5\LOAD\C251\LIB\C2SFPL.LIB (?C?FPGETOPN)
         COMMENT TYPE 0: A251 V4.69.6.0
L251 LINKER/LOCATER V4.66.93.0                                                        09/25/2023  21:38:02  PAGE 2


  C:\KEIL5\LOAD\C251\LIB\C2SFPL.LIB (?C?PRNFMT)
         COMMENT TYPE 0: A251 V4.69.6.0
  C:\KEIL5\LOAD\C251\LIB\C2SFPL.LIB (?C?FPCONVERT)
         COMMENT TYPE 0: A251 V4.69.6.0
  C:\KEIL5\LOAD\C251\LIB\C2SFPL.LIB (?C?FTNPWR)
         COMMENT TYPE 0: A251 V4.69.6.0
  C:\KEIL5\LOAD\C251\LIB\C2SL.LIB (?C_START)
         COMMENT TYPE 0: A251 V4.69.6.0
  C:\KEIL5\LOAD\C251\LIB\C2SL.LIB (?C?INITHDATA)
         COMMENT TYPE 0: A251 V4.69.6.0
  C:\KEIL5\LOAD\C251\LIB\C2SL.LIB (?C?SIDIV)
         COMMENT TYPE 0: A251 V4.69.6.0
  C:\KEIL5\LOAD\C251\LIB\C2SL.LIB (?C?LIMUL)
         COMMENT TYPE 0: A251 V4.69.6.0
  C:\KEIL5\LOAD\C251\LIB\C2SL.LIB (?C?ULDIV)
         COMMENT TYPE 0: A251 V4.69.6.0
  C:\KEIL5\LOAD\C251\LIB\C2SL.LIB (?C?SLDIV)
         COMMENT TYPE 0: A251 V4.69.6.0
  C:\KEIL5\LOAD\C251\LIB\C2SL.LIB (?C?BMOVEPP)
         COMMENT TYPE 0: A251 V4.69.6.0
  C:\KEIL5\LOAD\C251\LIB\C2SL.LIB (?C?INITHDATA_END)
         COMMENT TYPE 0: A251 V4.69.6.0


ACTIVE MEMORY CLASSES OF MODULE:  .\Objects\LQdemo (main)

BASE        START       END         USED      MEMORY CLASS
==========================================================
000000H     000000H     001FFFH     000100H   EDATA
000000H     000000H     001FFFH               HDATA
000000H     FF0000H     FFFFFFH     001203H   HCONST
FF0000H     FF0000H     FFFFFFH     002AB1H   CODE
010000H     010000H     01FFFFH     0001CBH   XDATA
000000H     000000H     00007FH     000012H   DATA
FF0000H     FF0000H     FFFFFFH     000004H   CONST


MEMORY MAP OF MODULE:  .\Objects\LQdemo (main)


START     STOP      LENGTH    ALIGN  RELOC    MEMORY CLASS   SEGMENT NAME
=========================================================================
000000H   000007H   000008H   ---    AT..     DATA           "REG BANK 0"
000008H   000011H   00000AH   BYTE   UNIT     DATA           ?DT?LQ_DIANCI
000012H   000111H   000100H   BYTE   UNIT     EDATA          ?STACK
000112H   00FFFFH   00FEEEH   ---    ---      **GAP**
010000H   010069H   00006AH   BYTE   INSEG    XDATA          ?XD?MAIN
01006AH   0100D3H   00006AH   BYTE   UNIT     XDATA          _XDATA_GROUP_
0100D4H   01011BH   000048H   BYTE   INSEG    XDATA          ?XD?LQ_DIANCI
01011CH   01015BH   000040H   BYTE   INSEG    XDATA          ?XD?LQ_UART
01015CH   01018DH   000032H   BYTE   INSEG    XDATA          ?XD?ANO_DT
01018EH   0101ABH   00001EH   BYTE   INSEG    XDATA          ?XD?LQ_PID
0101ACH   0101BBH   000010H   BYTE   INSEG    XDATA          ?XD?LQ_ICM20689
0101BCH   0101C3H   000008H   BYTE   INSEG    XDATA          ?XD?LQ_MOTORSERVO
0101C4H   0101C8H   000005H   BYTE   INSEG    XDATA          ?XD?LQ_GPIO_EXIT
0101C9H   0101CAH   000002H   BYTE   INSEG    XDATA          ?XD?LQ_GPIO_LED
0101CBH   FEFFFFH   FDFE35H   ---    ---      **GAP**
FF0000H   FF0002H   000003H   ---    OFFS..   CODE           ?CO?start251?4
FF0003H   FF0005H   000003H   ---    OFFS..   CODE           ?PR?IV?0
FF0006H   FF0006H   000001H   BYTE   INSEG    CODE           ?PR?TIMER2_INT?LQ_TIMER
FF0007H   FF0007H   000001H   BYTE   INSEG    CODE           ?PR?DISCERN3?LQ_DIANCI
FF0008H   FF0008H   000001H   BYTE   INSEG    CODE           ?PR?DISCERN?LQ_DIANCI
FF0009H   FF000AH   000002H   ---    ---      **GAP**
FF000BH   FF000DH   000003H   ---    OFFS..   CODE           ?PR?IV?1
FF000EH   FF0011H   000004H   BYTE   UNIT     CONST          ?CO?PRINTF
L251 LINKER/LOCATER V4.66.93.0                                                        09/25/2023  21:38:02  PAGE 3


FF0012H   FF0012H   000001H   ---    ---      **GAP**
FF0013H   FF0015H   000003H   ---    OFFS..   CODE           ?PR?IV?2
FF0016H   FF0022H   00000DH   ---    ---      **GAP**
FF0023H   FF0025H   000003H   ---    OFFS..   CODE           ?PR?IV?4
FF0026H   FF0059H   000034H   BYTE   INSEG    CODE           ?PR?OLED_CLS?LQ_OLED096
FF005AH   FF005AH   000001H   ---    ---      **GAP**
FF005BH   FF005DH   000003H   ---    OFFS..   CODE           ?PR?IV?11
FF005EH   FF0062H   000005H   ---    ---      **GAP**
FF0063H   FF0065H   000003H   ---    OFFS..   CODE           ?PR?IV?12
FF0066H   FF0082H   00001DH   BYTE   INSEG    CODE           ?PR?TIMER0_INIT?LQ_TIMER
FF0083H   FF0085H   000003H   ---    OFFS..   CODE           ?PR?IV?16
FF0086H   FF0092H   00000DH   ---    ---      **GAP**
FF0093H   FF0095H   000003H   ---    OFFS..   CODE           ?PR?IV?18
FF0096H   FF009AH   000005H   ---    ---      **GAP**
FF009BH   FF009DH   000003H   ---    OFFS..   CODE           ?PR?IV?19
FF009EH   FF00A2H   000005H   ---    ---      **GAP**
FF00A3H   FF00A5H   000003H   ---    OFFS..   CODE           ?PR?IV?20
FF00A6H   FF0A5AH   0009B5H   BYTE   UNIT     CODE           ?C?LIB_CODE
FF0A5BH   FF1371H   000917H   BYTE   INSEG    CODE           ?PR?CONTROL?LQ_DIANCI
FF1372H   FF157EH   00020DH   BYTE   INSEG    CODE           ?PR?TIMER0_INT?LQ_DIANCI
FF157FH   FF177FH   000201H   BYTE   INSEG    CODE           ?PR?INDUCTORNORMAL?LQ_DIANCI
FF1780H   FF194FH   0001D0H   BYTE   INSEG    CODE           ?PR?OLED_P14X16STR?LQ_OLED096
FF1950H   FF1AF4H   0001A5H   BYTE   INSEG    CODE           ?PR?MAIN?MAIN
FF1AF5H   FF1C88H   000194H   BYTE   INSEG    CODE           ?PR?OLED_SHOW?LQ_DIANCI
FF1C89H   FF1DD2H   00014AH   BYTE   INSEG    CODE           ?PR?SANCHA?LQ_DIANCI
FF1DD3H   FF1F19H   000147H   BYTE   INSEG    CODE           ?PR?DISCERN4?LQ_DIANCI
FF1F1AH   FF2041H   000128H   BYTE   INSEG    CODE           ?PR?MOTORINIT?LQ_MOTORSERVO
FF2042H   FF2123H   0000E2H   BYTE   INSEG    CODE           ?PR?LED_CTRL?LQ_GPIO_LED
FF2124H   FF21E2H   0000BFH   BYTE   INSEG    CODE           ?PR?MOTORCTRL?LQ_MOTORSERVO
FF21E3H   FF229FH   0000BDH   BYTE   INSEG    CODE           ?PR?ICM_GET_RAW_DATA?LQ_ICM20689
FF22A0H   FF234FH   0000B0H   BYTE   INSEG    CODE           ?PR?OLED_P6X8STR?LQ_OLED096
FF2350H   FF23FDH   0000AEH   BYTE   INSEG    CODE           ?PR?OLED_INIT?LQ_OLED096
FF23FEH   FF24A2H   0000A5H   BYTE   INSEG    CODE           ?PR?ICM20689_INIT?LQ_ICM20689
FF24A3H   FF2513H   000071H   BYTE   INSEG    CODE           ?PR?SPEEDCONTROL?LQ_PID
FF2514H   FF257FH   00006CH   BYTE   INSEG    CODE           ?PR?READ_ENCODER?LQ_ENCODER
FF2580H   FF25E3H   000064H   BYTE   INSEG    CODE           ?PR?PIDINIT?LQ_PID
FF25E4H   FF2633H   000050H   BYTE   INSEG    CODE           ?PR?SYSINIT?MAIN
FF2634H   FF2683H   000050H   BYTE   INSEG    CODE           ?PR?ADC_READ_AVERAGE?LQ_ADC
FF2684H   FF26D0H   00004DH   BYTE   INSEG    CODE           ?PR?UART4_INT?LQ_UART
FF26D1H   FF271BH   00004BH   BYTE   INSEG    CODE           ?PR?DIRANGLECONTROL?LQ_PID
FF271CH   FF272EH   000013H   BYTE   UNIT     CODE           ?C_C51STARTUP
FF272FH   FF275FH   000031H   BYTE   UNIT     CODE           ?C_C51STARTUP?2
FF2760H   FF2762H   000003H   BYTE   UNIT     CODE           ?C_C51STARTUP?3
FF2763H   FF27A5H   000043H   BYTE   INSEG    CODE           ?PR?SPI_SOFTREADWRITENBYTE?LQ_ICM20689
FF27A6H   FF27E8H   000043H   BYTE   INSEG    CODE           ?PR?DIRCONTROL?LQ_PID
FF27E9H   FF2829H   000041H   BYTE   INSEG    CODE           ?PR?ICM_SET_LPF?LQ_ICM20689
FF282AH   FF285FH   000036H   BYTE   INSEG    CODE           ?PR?TIMER3_INT?LQ_TIMER
FF2860H   FF2895H   000036H   BYTE   INSEG    CODE           ?PR?TIMER4_INT?LQ_TIMER
FF2896H   FF28C4H   00002FH   BYTE   INSEG    CODE           ?PR?ICM_SET_RATE?LQ_ICM20689
FF28C5H   FF28F0H   00002CH   BYTE   INSEG    CODE           ?PR?ADC_READ?LQ_ADC
FF28F1H   FF2915H   000025H   BYTE   INSEG    CODE           ?PR?OLED_WRCMD?LQ_OLED096
FF2916H   FF293AH   000025H   BYTE   INSEG    CODE           ?PR?OLED_WRDAT?LQ_OLED096
FF293BH   FF295FH   000025H   BYTE   INSEG    CODE           ?PR?UART4_CONFIG?LQ_UART
FF2960H   FF2982H   000023H   BYTE   INSEG    CODE           ?PR?OLED_SET_POS?LQ_OLED096
FF2983H   FF299CH   00001AH   BYTE   INSEG    CODE           ?PR?ADC_INIT?LQ_ADC
FF299DH   FF29B6H   00001AH   BYTE   INSEG    CODE           ?PR?ICM_READ_BYTE?LQ_ICM20689
FF29B7H   FF29CFH   000019H   BYTE   INSEG    CODE           ?PR?ICM_WRITE_BYTE?LQ_ICM20689
FF29D0H   FF29E7H   000018H   BYTE   INSEG    CODE           ?PR?SETTIMER2BAUDRAYE?LQ_UART
FF29E8H   FF29FEH   000017H   BYTE   INSEG    CODE           ?PR?INT0_INT?LQ_GPIO_EXIT
FF29FFH   FF2A15H   000017H   BYTE   INSEG    CODE           ?PR?INT1_INT?LQ_GPIO_EXIT
FF2A16H   FF2A2CH   000017H   BYTE   INSEG    CODE           ?PR?INT3_INT?LQ_GPIO_EXIT
FF2A2DH   FF2A43H   000017H   BYTE   INSEG    CODE           ?PR?INT4_INT?LQ_GPIO_EXIT
FF2A44H   FF2A5AH   000017H   BYTE   INSEG    CODE           ?PR?DELAYMS?LQ_SOFTI2C
FF2A5BH   FF2A6EH   000014H   BYTE   INSEG    CODE           ?PR?SPI_SOFTINIT?LQ_ICM20689
FF2A6FH   FF2A81H   000013H   BYTE   INSEG    CODE           ?PR?ICM_SET_ACCEL_FSR?LQ_ICM20689
L251 LINKER/LOCATER V4.66.93.0                                                        09/25/2023  21:38:02  PAGE 4


FF2A82H   FF2A94H   000013H   BYTE   INSEG    CODE           ?PR?ICM_SET_GYRO_FSR?LQ_ICM20689
FF2A95H   FF2AA7H   000013H   BYTE   INSEG    CODE           ?PR?TIMER34ENCINIT?LQ_ENCODER
FF2AA8H   FF2AB6H   00000FH   BYTE   INSEG    CODE           ?PR?GPIO_KEY_INIT?LQ_GPIO_KEY
FF2AB7H   FF2AC5H   00000FH   BYTE   INSEG    CODE           ?PR?UART1_INT?LQ_UART
FF2AC6H   FF2AD3H   00000EH   BYTE   INSEG    CODE           ?PR?GPIO_LED_INIT?LQ_GPIO_LED
FF2AD4H   FF2AE1H   00000EH   BYTE   INSEG    CODE           ?PR?ICM_READ_LEN?LQ_ICM20689
FF2AE2H   FF398FH   000EAEH   BYTE   UNIT     HCONST         ?HC?LQ_OLED096
FF3990H   FF3AEAH   00015BH   BYTE   UNIT     HCONST         ?C_INITHDATA
FF3AEBH   FF3B60H   000076H   BYTE   UNIT     HCONST         ?HC?LQ_GPIO_KEY
FF3B61H   FF3BCCH   00006CH   BYTE   UNIT     HCONST         ?HC?LQ_DIANCI
FF3BCDH   FF3C22H   000056H   BYTE   UNIT     HCONST         ?HC?LQ_ICM20689
FF3C23H   FF3C6BH   000049H   BYTE   UNIT     HCONST         ?HC?LQ_ADC
FF3C6CH   FF3CAEH   000043H   BYTE   UNIT     HCONST         ?HC?LQ_MOTORSERVO
FF3CAFH   FF3CD3H   000025H   BYTE   UNIT     HCONST         ?HC?LQ_ENCODER
FF3CD4H   FF3CE4H   000011H   BYTE   UNIT     HCONST         ?HC?MAIN

* * * * * * * * *   R E M O V E D     S E G M E N T S   * * * * * * * *
   *DEL*:           0000FFH   BYTE   INSEG    CODE           ?PR?TEST_ADC?LQ_ADC
   *DEL*:           00001EH   BYTE   UNIT     XDATA          ?XD?TEST_ADC?LQ_ADC
   *DEL*:           000008H   BYTE   UNIT     DATA           ?DT?TEST_ADC?LQ_ADC
   *DEL*:           000012H   BYTE   INSEG    CODE           ?PR?GPIO_EXIT_INIT?LQ_GPIO_EXIT
   *DEL*:           00000FH   BYTE   INSEG    CODE           ?PR?TEST_GPIO_EXIT_INIT?LQ_GPIO_EXIT
   *DEL*:           0000D6H   BYTE   INSEG    CODE           ?PR?TEST_COMKEY_TFT?LQ_GPIO_KEY
   *DEL*:           000022H   BYTE   INSEG    CODE           ?PR?KEY_READ_COMB?LQ_GPIO_KEY
   *DEL*:           00005FH   BYTE   INSEG    CODE           ?PR?KEY_READ?LQ_GPIO_KEY
   *DEL*:           000046H   BYTE   INSEG    CODE           ?PR?TEST_GPIO_KEY?LQ_GPIO_KEY
   *DEL*:           000021H   BYTE   INSEG    CODE           ?PR?LED_FLASH?LQ_GPIO_LED
   *DEL*:           000017H   BYTE   INSEG    CODE           ?PR?TEST_GPIO_LED?LQ_GPIO_LED
   *DEL*:           000053H   BYTE   INSEG    CODE           ?PR?READNBYTE?LQ_I2C
   *DEL*:           000017H   BYTE   INSEG    CODE           ?PR?SENDDATA?LQ_I2C
   *DEL*:           00001CH   BYTE   INSEG    CODE           ?PR?RECVDATA?LQ_I2C
   *DEL*:           000010H   BYTE   INSEG    CODE           ?PR?START?LQ_I2C
   *DEL*:           00003CH   BYTE   INSEG    CODE           ?PR?WRITENBYTE?LQ_I2C
   *DEL*:           000017H   BYTE   INSEG    CODE           ?PR?WAIT?LQ_I2C
   *DEL*:           000010H   BYTE   INSEG    CODE           ?PR?STOP?LQ_I2C
   *DEL*:           000016H   BYTE   INSEG    CODE           ?PR?I2C_INIT?LQ_I2C
   *DEL*:           000018H   BYTE   INSEG    CODE           ?PR?SENDACK?LQ_I2C
   *DEL*:           000010H   BYTE   INSEG    CODE           ?PR?RECVACK?LQ_I2C
   *DEL*:           000019H   BYTE   INSEG    CODE           ?PR?SENDNAK?LQ_I2C
   *DEL*:           000002H   BYTE   UNIT     XDATA          ?XD?WRITENBYTE?LQ_I2C
   *DEL*:           000002H   BYTE   UNIT     XDATA          ?XD?READNBYTE?LQ_I2C
   *DEL*:           00018FH   BYTE   INSEG    CODE           ?PR?OLED_ROAD?LQ_OLED096
   *DEL*:           000035H   BYTE   INSEG    CODE           ?PR?OLED_FILL?LQ_OLED096
   *DEL*:           00013DH   BYTE   INSEG    CODE           ?PR?OLED_RECTANGLE?LQ_OLED096
   *DEL*:           000072H   BYTE   INSEG    CODE           ?PR?TEST_OLED?LQ_OLED096
   *DEL*:           0000FFH   BYTE   INSEG    CODE           ?PR?OLED_P8X16STR?LQ_OLED096
   *DEL*:           000035H   BYTE   INSEG    CODE           ?PR?OLED_SHOW_LQLOGO?LQ_OLED096
   *DEL*:           000053H   BYTE   INSEG    CODE           ?PR?OLED_PUTPIXEL?LQ_OLED096
   *DEL*:           00003CH   BYTE   INSEG    CODE           ?PR?OLED_CLRDOT?LQ_OLED096
   *DEL*:           0000B6H   BYTE   INSEG    CODE           ?PR?OLED_SHOW_FRAME80?LQ_OLED096
   *DEL*:           0000B6H   BYTE   INSEG    CODE           ?PR?OLED_SHOW_FRAME94?LQ_OLED096
   *DEL*:           0000BCH   BYTE   INSEG    CODE           ?PR?OLED_SHOW_BMP?LQ_OLED096
   *DEL*:           000009H   BYTE   INSEG    CODE           ?PR?LQ_OLED_SHORT_DELAY?LQ_OLED096
   *DEL*:           000003H   BYTE   UNIT     XDATA          ?XD?OLED_RECTANGLE?LQ_OLED096
   *DEL*:           000006H   BYTE   UNIT     XDATA          ?XD?OLED_P8X16STR?LQ_OLED096
   *DEL*:           000007H   BYTE   UNIT     XDATA          ?XD?OLED_SHOW_BMP?LQ_OLED096
   *DEL*:           000009H   BYTE   UNIT     XDATA          ?XD?OLED_ROAD?LQ_OLED096
   *DEL*:           000010H   BYTE   UNIT     XDATA          ?XD?TEST_OLED?LQ_OLED096
   *DEL*:           000025H   BYTE   INSEG    CODE           ?PR?SPI_INIT?LQ_SPI
   *DEL*:           00002BH   BYTE   INSEG    CODE           ?PR?SPI_READ_NBYTES?LQ_SPI
   *DEL*:           00003AH   BYTE   INSEG    CODE           ?PR?SPI_WRITE_NBYTES?LQ_SPI
   *DEL*:           00000EH   BYTE   INSEG    CODE           ?PR?SPI_READBYTE?LQ_SPI
   *DEL*:           00000CH   BYTE   INSEG    CODE           ?PR?SPI_WRITEBYTE?LQ_SPI
   *DEL*:           000002H   BYTE   UNIT     XDATA          ?XD?SPI_READ_NBYTES?LQ_SPI
   *DEL*:           000002H   BYTE   UNIT     XDATA          ?XD?SPI_WRITE_NBYTES?LQ_SPI
L251 LINKER/LOCATER V4.66.93.0                                                        09/25/2023  21:38:02  PAGE 5


   *DEL*:           00001DH   BYTE   INSEG    CODE           ?PR?TIMER1_INIT?LQ_TIMER
   *DEL*:           000013H   BYTE   INSEG    CODE           ?PR?TIMER2_INIT?LQ_TIMER
   *DEL*:           000010H   BYTE   INSEG    CODE           ?PR?TIMER3_INIT?LQ_TIMER
   *DEL*:           000010H   BYTE   INSEG    CODE           ?PR?TIMER4_INIT?LQ_TIMER
   *DEL*:           00006CH   BYTE   INSEG    CODE           ?PR?ICM_GET_ACCELEROMETER?LQ_ICM20689
   *DEL*:           000016H   BYTE   INSEG    CODE           ?PR?ICM20689_RESET?LQ_ICM20689
   *DEL*:           000042H   BYTE   INSEG    CODE           ?PR?ICM_GET_TEMPERATURE?LQ_ICM20689
   *DEL*:           00019BH   BYTE   INSEG    CODE           ?PR?TEST_ICM20689?LQ_ICM20689
   *DEL*:           00006CH   BYTE   INSEG    CODE           ?PR?ICM_GET_GYROSCOPE?LQ_ICM20689
   *DEL*:           000018H   BYTE   UNIT     XDATA          ?XD?TEST_ICM20689?LQ_ICM20689
   *DEL*:           000004H   BYTE   UNIT     DATA           ?DT?TEST_ICM20689?LQ_ICM20689
   *DEL*:           00000FH   BYTE   UNIT     XDATA          ?XD?ICM_GET_GYROSCOPE?LQ_ICM20689
   *DEL*:           00000FH   BYTE   UNIT     XDATA          ?XD?ICM_GET_ACCELEROMETER?LQ_ICM20689
   *DEL*:           000003H   BYTE   UNIT     XDATA          ?XD?ICM_GET_TEMPERATURE?LQ_ICM20689
   *DEL*:           000094H   BYTE   INSEG    CODE           ?PR?SERVOINIT?LQ_MOTORSERVO
   *DEL*:           00001BH   BYTE   INSEG    CODE           ?PR?SERVOCTRL?LQ_MOTORSERVO
   *DEL*:           0000A4H   BYTE   INSEG    CODE           ?PR?TESTSERVO?LQ_MOTORSERVO
   *DEL*:           00009DH   BYTE   INSEG    CODE           ?PR?TESTMOTOR?LQ_MOTORSERVO
   *DEL*:           000010H   BYTE   UNIT     XDATA          ?XD?TESTMOTOR?LQ_MOTORSERVO
   *DEL*:           000010H   BYTE   UNIT     XDATA          ?XD?TESTSERVO?LQ_MOTORSERVO
   *DEL*:           0000E9H   BYTE   INSEG    CODE           ?PR?TESTENCODER?LQ_ENCODER
   *DEL*:           000012H   BYTE   UNIT     XDATA          ?XD?TESTENCODER?LQ_ENCODER
   *DEL*:           000004H   BYTE   INSEG    CODE           ?PR?UART1_PUTCHAR?LQ_UART
   *DEL*:           000004H   BYTE   INSEG    CODE           ?PR?UART4_PUTCHAR?LQ_UART
   *DEL*:           000034H   BYTE   INSEG    CODE           ?PR?UART4_PUTBUFF?LQ_UART
   *DEL*:           000016H   BYTE   INSEG    CODE           ?PR?UART1_PUTSTR?LQ_UART
   *DEL*:           000016H   BYTE   INSEG    CODE           ?PR?UART4_PUTSTR?LQ_UART
   *DEL*:           00003DH   BYTE   INSEG    CODE           ?PR?UART1_CONFIG?LQ_UART
   *DEL*:           000003H   BYTE   INSEG    CODE           ?PR?UART1_GETCHAR?LQ_UART
   *DEL*:           000003H   BYTE   INSEG    CODE           ?PR?UART4_GETCHAR?LQ_UART
   *DEL*:           000004H   BYTE   UNIT     XDATA          ?XD?UART4_PUTBUFF?LQ_UART
   *DEL*:           000005H   BYTE   INSEG    CODE           ?PR?ANO_DT_SEND_DATA?ANO_DT
   *DEL*:           0001C9H   BYTE   INSEG    CODE           ?PR?UART4_SENDINT16?ANO_DT
   *DEL*:           00014DH   BYTE   INSEG    CODE           ?PR?ANO_DT_SEND_INT16?ANO_DT
   *DEL*:           000010H   BYTE   UNIT     XDATA          ?XD?ANO_DT_SEND_INT16?ANO_DT
   *DEL*:           00000DH   BYTE   UNIT     XDATA          ?XD?UART4_SENDINT16?ANO_DT
   *DEL*:           00008CH   BYTE   INSEG    CODE           ?PR?IICREADBYTES?LQ_SOFTI2C
   *DEL*:           00000FH   BYTE   INSEG    CODE           ?PR?IICREADBYTE?LQ_SOFTI2C
   *DEL*:           000066H   BYTE   INSEG    CODE           ?PR?IICWRITEBYTES?LQ_SOFTI2C
   *DEL*:           000090H   BYTE   INSEG    CODE           ?PR?IICWRITEBITS?LQ_SOFTI2C
   *DEL*:           00008BH   BYTE   INSEG    CODE           ?PR?LQ_I2C_READ?LQ_SOFTI2C
   *DEL*:           000014H   BYTE   INSEG    CODE           ?PR?IICWRITEBYTE?LQ_SOFTI2C
   *DEL*:           00005AH   BYTE   INSEG    CODE           ?PR?IICWRITEBIT?LQ_SOFTI2C
   *DEL*:           00007DH   BYTE   INSEG    CODE           ?PR?LQ_I2C_WRITE?LQ_SOFTI2C
   *DEL*:           00001EH   BYTE   INSEG    CODE           ?PR?SOFT_IIC_NACK?LQ_SOFTI2C
   *DEL*:           00003BH   BYTE   INSEG    CODE           ?PR?SOFT_IIC_READ_BYTE?LQ_SOFTI2C
   *DEL*:           000048H   BYTE   INSEG    CODE           ?PR?SOFT_IIC_SEND_BYTE?LQ_SOFTI2C
   *DEL*:           00002DH   BYTE   INSEG    CODE           ?PR?I2C_READONEBYTE?LQ_SOFTI2C
   *DEL*:           000032H   BYTE   INSEG    CODE           ?PR?SOFT_IIC_WAIT_ACK?LQ_SOFTI2C
   *DEL*:           000019H   BYTE   INSEG    CODE           ?PR?SOFT_IIC_ACK?LQ_SOFTI2C
   *DEL*:           000027H   BYTE   INSEG    CODE           ?PR?SOFT_IIC_START?LQ_SOFTI2C
   *DEL*:           00000EH   BYTE   INSEG    CODE           ?PR?SOFT_IIC_INIT?LQ_SOFTI2C
   *DEL*:           000017H   BYTE   INSEG    CODE           ?PR?DELAYUS?LQ_SOFTI2C
   *DEL*:           000024H   BYTE   INSEG    CODE           ?PR?SOFT_IIC_STOP?LQ_SOFTI2C
   *DEL*:           000002H   BYTE   UNIT     XDATA          ?XD?LQ_I2C_WRITE?LQ_SOFTI2C
   *DEL*:           000004H   BYTE   UNIT     DATA           ?DT?LQ_I2C_WRITE?LQ_SOFTI2C
   *DEL*:           000002H   BYTE   UNIT     XDATA          ?XD?LQ_I2C_READ?LQ_SOFTI2C
   *DEL*:           000002H   BYTE   UNIT     DATA           ?DT?LQ_I2C_READ?LQ_SOFTI2C
   *DEL*:           000004H   BYTE   UNIT     XDATA          ?XD?IICREADBYTES?LQ_SOFTI2C
   *DEL*:           000004H   BYTE   UNIT     XDATA          ?XD?IICWRITEBYTES?LQ_SOFTI2C
   *DEL*:           000001H   BYTE   UNIT     XDATA          ?XD?IICWRITEBYTE?LQ_SOFTI2C
   *DEL*:           000002H   BYTE   UNIT     XDATA          ?XD?IICWRITEBITS?LQ_SOFTI2C
   *DEL*:           000001H   BYTE   UNIT     XDATA          ?XD?IICWRITEBIT?LQ_SOFTI2C
   *DEL*:           00002CH   BYTE   INSEG    CODE           ?PR?CONSTRAIN_FLOAT?LQ_PID
   *DEL*:           0000BCH   BYTE   INSEG    CODE           ?PR?PIDINCCTRL?LQ_PID
L251 LINKER/LOCATER V4.66.93.0                                                        09/25/2023  21:38:02  PAGE 6


   *DEL*:           0000F9H   BYTE   INSEG    CODE           ?PR?PIDLOCCTRL?LQ_PID
   *DEL*:           000004H   BYTE   UNIT     XDATA          ?XD?CONSTRAIN_FLOAT?LQ_PID
   *DEL*:           000004H   BYTE   UNIT     XDATA          ?XD?PIDLOCCTRL?LQ_PID
   *DEL*:           000154H   BYTE   INSEG    CODE           ?PR?SANCHA3?LQ_DIANCI



OVERLAY MAP OF MODULE:   .\Objects\LQdemo (main)


FUNCTION/MODULE                         XDATA_GROUP
--> CALLED FUNCTION/MODULE              START  STOP
===================================================
INT0_int/LQ_GPIO_EXIT                   ----- -----

*** NEW ROOT **************************

INT1_int/LQ_GPIO_EXIT                   ----- -----

*** NEW ROOT **************************

INT3_int/LQ_GPIO_EXIT                   ----- -----

*** NEW ROOT **************************

INT4_int/LQ_GPIO_EXIT                   ----- -----

*** NEW ROOT **************************

timer2_int/LQ_TIMER                     ----- -----

*** NEW ROOT **************************

timer3_int/LQ_TIMER                     ----- -----
  +--> LED_Ctrl/LQ_GPIO_LED

LED_Ctrl/LQ_GPIO_LED                    ----- -----

*** NEW ROOT **************************

timer4_int/LQ_TIMER                     ----- -----
  +--> LED_Ctrl/LQ_GPIO_LED

*** NEW ROOT **************************

UART1_int/LQ_UART                       ----- -----

*** NEW ROOT **************************

UART4_int/LQ_UART                       ----- -----

*** NEW ROOT **************************

timer0_int/LQ_dianci                    ----- -----
  +--> ICM_Get_Raw_data/LQ_ICM20689
  +--> Read_Encoder/LQ_Encoder
  +--> InductorNormal/LQ_dianci
  +--> Control/LQ_dianci
  +--> dircontrol/LQ_PID
  +--> diranglecontrol/LQ_PID
  +--> speedcontrol/LQ_PID
  +--> MotorCtrl/LQ_MotorServo

ICM_Get_Raw_data/LQ_ICM20689            006AH 008DH
  +--> ICM_Read_Len/LQ_ICM20689
L251 LINKER/LOCATER V4.66.93.0                                                        09/25/2023  21:38:02  PAGE 7



ICM_Read_Len/LQ_ICM20689                ----- -----
  +--> SPI_SoftReadWriteNbyte/LQ_ICM20689

SPI_SoftReadWriteNbyte/LQ_ICM20689      ----- -----

Read_Encoder/LQ_Encoder                 ----- -----

InductorNormal/LQ_dianci                ----- -----
  +--> ADC_Read_Average/LQ_ADC

ADC_Read_Average/LQ_ADC                 006AH 006DH
  +--> ADC_Read/LQ_ADC
  +--> ?C?ULIDIV/?C?ULDIV

ADC_Read/LQ_ADC                         ----- -----

?C?ULIDIV/?C?ULDIV                      ----- -----

Control/LQ_dianci                       ----- -----
  +--> Discern4/LQ_dianci
  +--> sancha/LQ_dianci
  +--> LED_Ctrl/LQ_GPIO_LED
  +--> Discern/LQ_dianci
  +--> Discern3/LQ_dianci

Discern4/LQ_dianci                      ----- -----
  +--> LED_Ctrl/LQ_GPIO_LED

sancha/LQ_dianci                        ----- -----
  +--> LED_Ctrl/LQ_GPIO_LED

Discern/LQ_dianci                       ----- -----

Discern3/LQ_dianci                      ----- -----

dircontrol/LQ_PID                       ----- -----

diranglecontrol/LQ_PID                  ----- -----

speedcontrol/LQ_PID                     ----- -----

MotorCtrl/LQ_MotorServo                 ----- -----

*** NEW ROOT **************************

?C_C51STARTUP                           ----- -----

*** NEW ROOT **************************

?C_C51STARTUP?3                         ----- -----
  +--> main/main

main/main                               ----- -----
  +--> sysinit/main
  +--> UART4_config/LQ_UART
  +--> OLED_Init/LQ_OLED096
  +--> OLED_P14x16Str/LQ_OLED096
  +--> delayms/LQ_SOFTI2C
  +--> ICM20689_Init/LQ_ICM20689
  +--> GPIO_KEY_Init/LQ_GPIO_KEY
  +--> MotorInit/LQ_MotorServo
  +--> ADC_Init/LQ_ADC
  +--> Timer34EncInit/LQ_Encoder
  +--> Timer0_init/LQ_TIMER
L251 LINKER/LOCATER V4.66.93.0                                                        09/25/2023  21:38:02  PAGE 8


  +--> OLED_CLS/LQ_OLED096
  +--> GPIO_LED_Init/LQ_GPIO_LED
  +--> PidInit/LQ_PID
  +--> OLED_show/LQ_dianci

sysinit/main                            ----- -----

UART4_config/LQ_UART                    ----- -----
  +--> SetTimer2Baudraye/LQ_UART

SetTimer2Baudraye/LQ_UART               ----- -----

OLED_Init/LQ_OLED096                    ----- -----
  +--> delayms/LQ_SOFTI2C
  +--> OLED_WrCmd/LQ_OLED096
  +--> OLED_CLS/LQ_OLED096
  +--> OLED_Set_Pos/LQ_OLED096

delayms/LQ_SOFTI2C                      ----- -----

OLED_WrCmd/LQ_OLED096                   ----- -----

OLED_CLS/LQ_OLED096                     ----- -----
  +--> OLED_WrCmd/LQ_OLED096
  +--> OLED_WrDat/LQ_OLED096

OLED_WrDat/LQ_OLED096                   ----- -----

OLED_Set_Pos/LQ_OLED096                 ----- -----
  +--> OLED_WrCmd/LQ_OLED096

OLED_P14x16Str/LQ_OLED096               008EH 0094H
  +--> OLED_Set_Pos/LQ_OLED096
  +--> OLED_WrDat/LQ_OLED096

ICM20689_Init/LQ_ICM20689               008EH 0097H
  +--> SPI_SoftInit/LQ_ICM20689
  +--> delayms/LQ_SOFTI2C
  +--> ICM_Read_Byte/LQ_ICM20689
  +--> SPRINTF/SPRINTF
  +--> OLED_P6x8Str/LQ_OLED096
  +--> ICM_Write_Byte/LQ_ICM20689
  +--> ICM_Set_Gyro_Fsr/LQ_ICM20689
  +--> ICM_Set_Accel_Fsr/LQ_ICM20689
  +--> ICM_Set_Rate/LQ_ICM20689

SPI_SoftInit/LQ_ICM20689                ----- -----

ICM_Read_Byte/LQ_ICM20689               0098H 0099H
  +--> SPI_SoftReadWriteNbyte/LQ_ICM20689

SPRINTF/SPRINTF                         00ACH 00D3H
  +--> OUT/SPRINTF

OUT/SPRINTF                             ----- -----
  +--> PUTCH/SPRINTF

PUTCH/SPRINTF                           ----- -----

OLED_P6x8Str/LQ_OLED096                 00ACH 00B0H
  +--> OLED_Set_Pos/LQ_OLED096
  +--> OLED_WrDat/LQ_OLED096

ICM_Write_Byte/LQ_ICM20689              0098H 0099H
  +--> SPI_SoftReadWriteNbyte/LQ_ICM20689
L251 LINKER/LOCATER V4.66.93.0                                                        09/25/2023  21:38:02  PAGE 9



ICM_Set_Gyro_Fsr/LQ_ICM20689            ----- -----
  +--> ICM_Write_Byte/LQ_ICM20689

ICM_Set_Accel_Fsr/LQ_ICM20689           ----- -----
  +--> ICM_Write_Byte/LQ_ICM20689

ICM_Set_Rate/LQ_ICM20689                ----- -----
  +--> ICM_Write_Byte/LQ_ICM20689
  +--> ICM_Set_LPF/LQ_ICM20689

ICM_Set_LPF/LQ_ICM20689                 ----- -----
  +--> ICM_Write_Byte/LQ_ICM20689

GPIO_KEY_Init/LQ_GPIO_KEY               ----- -----

MotorInit/LQ_MotorServo                 ----- -----
  +--> ?C?SLDIV/?C?SLDIV

?C?SLDIV/?C?SLDIV                       ----- -----
  +--> ?C?ULIDIV/?C?ULDIV

ADC_Init/LQ_ADC                         ----- -----

Timer34EncInit/LQ_Encoder               ----- -----

Timer0_init/LQ_TIMER                    ----- -----

GPIO_LED_Init/LQ_GPIO_LED               ----- -----

PidInit/LQ_PID                          ----- -----

OLED_show/LQ_dianci                     008EH 00ABH
  +--> SPRINTF/SPRINTF
  +--> OLED_P6x8Str/LQ_OLED096

*** NEW ROOT **************************

?C_C51STARTUP?2                         ----- -----



PUBLIC SYMBOLS OF MODULE:  .\Objects\LQdemo (main)


      VALUE       CLASS    TYPE      PUBLIC SYMBOL NAME
      =================================================
*DEL*:00000000H   XDATA    BYTE      ?ANO_DT_send_int16?BYTE
      00FF0A34H   CODE     ---       ?C?BMOVEPP
      00FF0A32H   CODE     ---       ?C?BMOVEPP8
      00FF0316H   CODE     NEAR LAB  ?C?CASTF
      000000FFH   NUMBER   ---       ?C?CODESEG
      00FF02E3H   CODE     NEAR LAB  ?C?FCASTC
      00FF02DEH   CODE     NEAR LAB  ?C?FCASTI
      00FF02D9H   CODE     NEAR LAB  ?C?FCASTL
      00FF00ACH   CODE     ---       ?C?FPADD
      00FF0287H   CODE     ---       ?C?FPCMP
      00FF0285H   CODE     ---       ?C?FPCMP3
      00FF080EH   CODE     ---       ?C?FPCONVERT
      00FF0204H   CODE     ---       ?C?FPDIV
      00FF0373H   CODE     ---       ?C?FPGETOPN2
      00FF0164H   CODE     ---       ?C?FPMUL
      00FF03B0H   CODE     ---       ?C?FPNANRESULT
      00FF02CBH   CODE     ---       ?C?FPNEG
      00FF03B8H   CODE     ---       ?C?FPOVERFLOW
L251 LINKER/LOCATER V4.66.93.0                                                        09/25/2023  21:38:02  PAGE 10


      00FF038CH   CODE     ---       ?C?FPRESULT
      00FF03A2H   CODE     ---       ?C?FPRESULT2
      00FF08C6H   CODE     ---       ?C?FPROUND
      00FF00A9H   CODE     ---       ?C?FPSUB
      00FF03B5H   CODE     ---       ?C?FPUNDERFLOW
      00FF0939H   CODE     ---       ?C?FTNPWR
      00FF272FH   CODE     ---       ?C?INITHDATA
      00FF3AE9H   HCONST   WORD      ?C?INITHDATA_END
      00FF09A2H   CODE     ---       ?C?LIMUL
      00FF03F1H   CODE     ---       ?C?PRNFMT
      00FF0970H   CODE     ---       ?C?SIDIV
      00FF09FEH   CODE     NEAR LAB  ?C?SLDIV
      00FF0000H   CODE     ---       ?C?STARTUP
      00FF09ADH   CODE     NEAR LAB  ?C?ULDIV
      00FF09ABH   CODE     NEAR LAB  ?C?ULIDIV
      00000001H   NUMBER   ---       ?C?XDATASEG
      00FF0000H   CODE     ---       ?C_STARTUP
*DEL*:1FFFFFF8H   XDATA    BYTE      ?constrain_float?BYTE
*DEL*:1FFFFFFCH   XDATA    BYTE      ?ICM_Get_Accelerometer?BYTE
*DEL*:1FFFFFFCH   XDATA    BYTE      ?ICM_Get_Gyroscope?BYTE
      00010066H   XDATA    BYTE      ?ICM_Get_Raw_data?BYTE
      000100D4H   XDATA    ---       ?sprintf?BYTE
*DEL*:1FFFFFFCH   XDATA    BYTE      ?UART4_SendInt16?BYTE
      000101B0H   XDATA    INT       aacx1
      000101B2H   XDATA    INT       aacy1
      000101B4H   XDATA    INT       aacz1
*SFR* 000000DCH   DATA     BYTE      ADC_CONTR
      00FF2983H   CODE     ---       ADC_Init
      00FF28C5H   CODE     ---       ADC_Read
      00FF2634H   CODE     ---       ADC_Read_Average
*SFR* 000000DDH   DATA     BYTE      ADC_RES
*SFR* 000000DEH   DATA     BYTE      ADC_RESL
*SFR* 000000DFH   DATA     BYTE      ADCCFG
*DEL*:00000000H   CODE     ---       ANO_DT_Send_Data
*DEL*:00000000H   CODE     ---       ANO_DT_send_int16
*SFR* 00000093H   DATA     BYTE      AUXR
      00010104H   XDATA    LONG      bmq_juli
      000100EEH   XDATA    INT       chazhi_huandao
      000100FCH   XDATA    INT       chazhi_sancha
*DEL*:00000000H   CODE     ---       constrain_float
      00FF0A5BH   CODE     ---       Control
      000100E6H   XDATA    INT       count
      0001015CH   XDATA    ---       data_to_send
      00FF2A44H   CODE     ---       delayms
*DEL*:00000000H   CODE     ---       delayus
      000100E2H   XDATA    INT       Detection
      00000008H   DATA     ---       diangan
      00010194H   XDATA    FLOAT     dir_d
      00010198H   XDATA    FLOAT     dir_p
      00FF26D1H   CODE     ---       diranglecontrol
      00FF27A6H   CODE     ---       dircontrol
      00010006H   XDATA    ---       Direc_PID
      000101A4H   XDATA    FLOAT     dirn_d
      0001018EH   XDATA    FLOAT     dirn_p
      00FF0008H   CODE     ---       Discern
      00FF0007H   CODE     ---       Discern3
      00FF1DD3H   CODE     ---       Discern4
*SFR* 000000A8H.7 DATA     BIT       EA
      000100F0H   XDATA    INT       ECPULSE1
      000100F4H   XDATA    INT       ECPULSE2
*SFR* 000000A8H.4 DATA     BIT       ES
*SFR* 000000A8H.1 DATA     BIT       ET0
*SFR* 000000A8H.3 DATA     BIT       ET1
*SFR* 000000E7H.2 DATA     BIT       ET2
*SFR* 000000E7H.5 DATA     BIT       ET3
L251 LINKER/LOCATER V4.66.93.0                                                        09/25/2023  21:38:02  PAGE 11


*SFR* 000000E7H.6 DATA     BIT       ET4
*SFR* 000000A8H.0 DATA     BIT       EX0
*SFR* 000000A8H.2 DATA     BIT       EX1
      00FF2B0DH   HCONST   ---       F14x16
      00FF2E01H   HCONST   ---       F14x16_Idx
      00FF2E38H   HCONST   ---       F6x8
      00FF3060H   HCONST   ---       F8X16
      000100DEH   XDATA    INT       Fork
      000100ECH   XDATA    INT       Fork_L
      000100F2H   XDATA    INT       Fork_R
      00010102H   XDATA    INT       Forkchu
      00010100H   XDATA    INT       Forking
      0001011EH   XDATA    INT       Go
*DEL*:00000000H   CODE     ---       GPIO_EXIT_Init
      00FF2AA8H   CODE     ---       GPIO_KEY_Init
      00FF2AC6H   CODE     ---       GPIO_LED_Init
      000101B6H   XDATA    INT       gyrox1
      000101B8H   XDATA    INT       gyroy1
      000101BAH   XDATA    INT       gyroz1
      00010118H   XDATA    INT       hdcha
      00010108H   XDATA    INT       huandao
      000100E0H   XDATA    INT       huandao1
*DEL*:00000000H   CODE     ---       I2C_init
*DEL*:00000000H   CODE     ---       I2C_ReadOneByte
      00FF23FEH   CODE     ---       ICM20689_Init
*DEL*:00000000H   CODE     ---       icm20689_reset
*DEL*:00000000H   CODE     ---       ICM_Get_Accelerometer
*DEL*:00000000H   CODE     ---       ICM_Get_Gyroscope
      00FF21E3H   CODE     ---       ICM_Get_Raw_data
*DEL*:00000000H   CODE     ---       ICM_Get_Temperature
      00FF299DH   CODE     ---       ICM_Read_Byte
      00FF2AD4H   CODE     ---       ICM_Read_Len
      00FF2A6FH   CODE     ---       ICM_Set_Accel_Fsr
      00FF2A82H   CODE     ---       ICM_Set_Gyro_Fsr
      00FF27E9H   CODE     ---       ICM_Set_LPF
      00FF2896H   CODE     ---       ICM_Set_Rate
      00FF29B7H   CODE     ---       ICM_Write_Byte
*SFR* 000000A8H   DATA     BYTE      IE
*SFR* 00000088H.1 DATA     BIT       IE0
*SFR* 00000088H.3 DATA     BIT       IE1
*SFR* 000000E7H   DATA     BYTE      IE2
*DEL*:00000000H   CODE     ---       IICreadByte
*DEL*:00000000H   CODE     ---       IICreadBytes
*DEL*:00000000H   CODE     ---       IICwriteBit
*DEL*:00000000H   CODE     ---       IICwriteBits
*DEL*:00000000H   CODE     ---       IICwriteByte
*DEL*:00000000H   CODE     ---       IICwriteBytes
      00FF157FH   CODE     ---       InductorNormal
      000101C4H   XDATA    BYTE      INT0_cnt
      00FF29E8H   CODE     ---       INT0_int
      000101C5H   XDATA    BYTE      INT1_cnt
      00FF29FFH   CODE     ---       INT1_int
      000101C6H   XDATA    BYTE      INT2_cnt
      000101C7H   XDATA    BYTE      INT3_cnt
      00FF2A16H   CODE     ---       INT3_int
      000101C8H   XDATA    BYTE      INT4_cnt
      00FF2A2DH   CODE     ---       INT4_int
*SFR* 00000095H   DATA     BYTE      INTCLKO
*SFR* 000000B8H   DATA     BYTE      IP
*SFR* 000000A9H   DATA     BYTE      IRCBAND
*SFR* 00000088H.0 DATA     BIT       IT0
*SFR* 00000088H.2 DATA     BIT       IT1
      00010067H   XDATA    BYTE      key1_flag
      00010003H   XDATA    BYTE      key1_last_status
      00010000H   XDATA    BYTE      key1_status
L251 LINKER/LOCATER V4.66.93.0                                                        09/25/2023  21:38:02  PAGE 12


      00010068H   XDATA    BYTE      key2_flag
      00010004H   XDATA    BYTE      key2_last_status
      00010001H   XDATA    BYTE      key2_status
      00010069H   XDATA    BYTE      key3_flag
      00010005H   XDATA    BYTE      key3_last_status
      00010002H   XDATA    BYTE      key3_status
      00010066H   XDATA    CHAR      key_flag
*DEL*:00000000H   CODE     ---       KEY_Read
*DEL*:00000000H   CODE     ---       KEY_Read_Comb
      00FF2042H   CODE     ---       LED_Ctrl
*DEL*:00000000H   CODE     ---       Led_Flash
      0001011AH   XDATA    INT       leftP
      000100D8H   XDATA    INT       leftV
      00FF3650H   HCONST   ---       longqiu104x64
*DEL*:00000000H   CODE     ---       LQ_I2C_Read
*DEL*:00000000H   CODE     ---       LQ_I2C_Write
*SFR* 000000A0H.2 DATA     BIT       LQ_IMU_CE
*SFR* 000000A0H.5 DATA     BIT       LQ_IMU_SCK
*SFR* 000000A0H.3 DATA     BIT       LQ_IMU_SI
*DEL*:00000000H   CODE     ---       lq_oled_short_delay
      00FF1950H   CODE     ---       main
      00FF2124H   CODE     ---       MotorCtrl
      0001010EH   XDATA    INT       MotorDuty1
      00010110H   XDATA    INT       MotorDuty2
      00FF1F1AH   CODE     ---       MotorInit
*DEL*:00000000H   CODE     ---       OLED_ClrDot
      00FF0026H   CODE     ---       OLED_CLS
*DEL*:00000000H   CODE     ---       OLED_Fill
      00FF2350H   CODE     ---       OLED_Init
      00FF1780H   CODE     ---       OLED_P14x16Str
      00FF22A0H   CODE     ---       OLED_P6x8Str
*DEL*:00000000H   CODE     ---       OLED_P8x16Str
*DEL*:00000000H   CODE     ---       OLED_PutPixel
*DEL*:00000000H   CODE     ---       OLED_Rectangle
*DEL*:00000000H   CODE     ---       OLED_Road
      00FF2960H   CODE     ---       OLED_Set_Pos
      00FF1AF5H   CODE     ---       OLED_show
*DEL*:00000000H   CODE     ---       OLED_Show_BMP
*DEL*:00000000H   CODE     ---       OLED_Show_Frame80
*DEL*:00000000H   CODE     ---       OLED_Show_Frame94
*DEL*:00000000H   CODE     ---       OLED_Show_LQLogo
      00FF28F1H   CODE     ---       OLED_WrCmd
      00FF2916H   CODE     ---       OLED_WrDat
      0001010CH   XDATA    INT       Out_dn
      00010114H   XDATA    INT       Out_dw
      000100DCH   XDATA    INT       Out_s
*SFR* 00000080H   DATA     BYTE      P0
*SFR* 00000080H.5 DATA     BIT       P05
*SFR* 00000080H.7 DATA     BIT       P07
*SFR* 000000F2H   DATA     BYTE      P0M0
*SFR* 000000F1H   DATA     BYTE      P0M1
*SFR* 00000090H   DATA     BYTE      P1
*SFR* 000000F4H   DATA     BYTE      P1M0
*SFR* 000000F3H   DATA     BYTE      P1M1
*SFR* 000000A0H   DATA     BYTE      P2
*SFR* 000000A0H.0 DATA     BIT       P20
*SFR* 000000A0H.1 DATA     BIT       P21
*SFR* 000000A0H.2 DATA     BIT       P22
*SFR* 000000A0H.3 DATA     BIT       P23
*SFR* 000000A0H.4 DATA     BIT       P24
*SFR* 000000A0H.5 DATA     BIT       P25
*SFR* 000000F6H   DATA     BYTE      P2M0
*SFR* 000000F5H   DATA     BYTE      P2M1
*SFR* 000000B0H   DATA     BYTE      P3
*SFR* 000000B0H.2 DATA     BIT       P32
L251 LINKER/LOCATER V4.66.93.0                                                        09/25/2023  21:38:02  PAGE 13


*SFR* 000000B0H.3 DATA     BIT       P33
*SFR* 000000FAH   DATA     BYTE      P3M0
*SFR* 000000F9H   DATA     BYTE      P3M1
*SFR* 000000C0H   DATA     BYTE      P4
*SFR* 000000C0H.0 DATA     BIT       P40
*SFR* 000000C0H.2 DATA     BIT       P42
*SFR* 000000FCH   DATA     BYTE      P4M0
*SFR* 000000FBH   DATA     BYTE      P4M1
*SFR* 000000C8H   DATA     BYTE      P5
*SFR* 000000EDH   DATA     BYTE      P5M0
*SFR* 000000ECH   DATA     BYTE      P5M1
*SFR* 000000E8H   DATA     BYTE      P6
*SFR* 000000E8H.1 DATA     BIT       P61
*SFR* 000000E8H.2 DATA     BIT       P62
*SFR* 000000E8H.3 DATA     BIT       P63
*SFR* 000000E8H.4 DATA     BIT       P64
*SFR* 000000EFH   DATA     BYTE      P6M0
*SFR* 000000EEH   DATA     BYTE      P6M1
*SFR* 000000F8H   DATA     BYTE      P7
*SFR* 000000F8H.0 DATA     BIT       P70
*SFR* 000000F8H.1 DATA     BIT       P71
*SFR* 000000F8H.2 DATA     BIT       P72
*SFR* 000000F8H.3 DATA     BIT       P73
*SFR* 000000D3H   DATA     BYTE      P7M0
*SFR* 000000D2H   DATA     BYTE      P7M1
*SFR* 0000009AH   DATA     BYTE      P_SW1
*SFR* 0000009BH   DATA     BYTE      P_SW2
*DEL*:00000000H   CODE     ---       PidIncCtrl
      00FF2580H   CODE     ---       PidInit
*DEL*:00000000H   CODE     ---       PidLocCtrl
*SFR* 000000D0H   DATA     BYTE      PSW
      000101BCH   XDATA    WORD      PWM1_Duty
      000101BEH   XDATA    WORD      PWM2_Duty
      000101C0H   XDATA    WORD      PWM3_Duty
      000101C2H   XDATA    WORD      PWM4_Duty
      00FF2514H   CODE     ---       Read_Encoder
*DEL*:00000000H   CODE     ---       ReadNbyte
*DEL*:00000000H   CODE     ---       RecvACK
*DEL*:00000000H   CODE     ---       RecvData
*SFR* 00000098H.4 DATA     BIT       REN
*SFR* 00000098H.0 DATA     BIT       RI
      00010112H   XDATA    INT       rightP
      00010116H   XDATA    INT       rightV
      000100DAH   XDATA    INT       Round
      000100E4H   XDATA    INT       Round_Out
      000100FAH   XDATA    INT       Rounding
*SFR* 000000FFH   DATA     BYTE      RSTCFG
      0001011CH   XDATA    INT       RX
*SFR* 000000BDH   DATA     BYTE      S4BUF
*SFR* 000000BCH   DATA     BYTE      S4CON
      00FF1C89H   CODE     ---       sancha
*DEL*:00000000H   CODE     ---       sancha3
*SFR* 00000099H   DATA     BYTE      SBUF
*SFR* 00000098H   DATA     BYTE      SCON
*DEL*:00000000H   CODE     ---       SendACK
*DEL*:00000000H   CODE     ---       SendData
*DEL*:00000000H   CODE     ---       SendNAK
*DEL*:00000000H   CODE     ---       ServoCtrl
*DEL*:00000000H   CODE     ---       ServoInit
      00FF29D0H   CODE     ---       SetTimer2Baudraye
*DEL*:00000000H   CODE     ---       SOFT_IIC_Ack
*DEL*:00000000H   CODE     ---       SOFT_IIC_Init
*DEL*:00000000H   CODE     ---       SOFT_IIC_NAck
*DEL*:00000000H   CODE     ---       SOFT_IIC_Read_Byte
*DEL*:00000000H   CODE     ---       SOFT_IIC_Send_Byte
L251 LINKER/LOCATER V4.66.93.0                                                        09/25/2023  21:38:02  PAGE 14


*DEL*:00000000H   CODE     ---       SOFT_IIC_Start
*DEL*:00000000H   CODE     ---       SOFT_IIC_Stop
*DEL*:00000000H   CODE     ---       SOFT_IIC_Wait_Ack
*SFR* 000000BAH   DATA     BYTE      SPCTL
*SFR* 000000BBH   DATA     BYTE      SPDAT
      0001019CH   XDATA    FLOAT     speed_i
      00010192H   XDATA    INT       speed_jifen
      000101A0H   XDATA    FLOAT     speed_p
      00010036H   XDATA    ---       Speed_PID
      00FF24A3H   CODE     ---       speedcontrol
*DEL*:00000000H   CODE     ---       SPI_init
*DEL*:00000000H   CODE     ---       SPI_Read_Nbytes
*DEL*:00000000H   CODE     ---       SPI_ReadByte
      00FF2A5BH   CODE     ---       SPI_SoftInit
      00FF2763H   CODE     ---       SPI_SoftReadWriteNbyte
*DEL*:00000000H   CODE     ---       SPI_Write_Nbytes
*DEL*:00000000H   CODE     ---       SPI_WriteByte
      00FF0353H   CODE     NEAR LAB  sprintf
*SFR* 000000B9H   DATA     BYTE      SPSTAT
*DEL*:00000000H   CODE     ---       Start
*DEL*:00000000H   CODE     ---       Stop
      00FF25E4H   CODE     ---       sysinit
*SFR* 000000CDH   DATA     BYTE      T2H
*SFR* 000000CEH   DATA     BYTE      T2L
*SFR* 000000CBH   DATA     BYTE      T3H
*SFR* 000000CCH   DATA     BYTE      T3L
*SFR* 000000C9H   DATA     BYTE      T4H
*SFR* 000000CAH   DATA     BYTE      T4L
*SFR* 000000DBH   DATA     BYTE      T4T3M
      000100EAH   XDATA    INT       Target_Speed
*SFR* 00000088H   DATA     BYTE      TCON
      000101ACH   XDATA    FLOAT     temp_p
      000100D4H   XDATA    LONG      TempAngle
*DEL*:00000000H   CODE     ---       Test_ADC
*DEL*:00000000H   CODE     ---       Test_ComKEY_Tft
*DEL*:00000000H   CODE     ---       Test_GPIO_EXIT_Init
*DEL*:00000000H   CODE     ---       Test_GPIO_KEY
*DEL*:00000000H   CODE     ---       Test_GPIO_LED
*DEL*:00000000H   CODE     ---       Test_ICM20689
*DEL*:00000000H   CODE     ---       Test_OLED
*DEL*:00000000H   CODE     ---       TestEncoder
*DEL*:00000000H   CODE     ---       TestMotor
*DEL*:00000000H   CODE     ---       TestServo
*SFR* 0000008CH   DATA     BYTE      TH0
*SFR* 0000008DH   DATA     BYTE      TH1
*SFR* 00000098H.1 DATA     BIT       TI
      000100E8H   XDATA    INT       time
      00FF0066H   CODE     ---       Timer0_init
      00FF1372H   CODE     ---       timer0_int
*DEL*:00000000H   CODE     ---       Timer1_init
*DEL*:00000000H   CODE     ---       Timer2_init
      00FF0006H   CODE     ---       timer2_int
      00FF2A95H   CODE     ---       Timer34EncInit
*DEL*:00000000H   CODE     ---       Timer3_init
      00FF282AH   CODE     ---       timer3_int
*DEL*:00000000H   CODE     ---       Timer4_init
      00FF2860H   CODE     ---       timer4_int
*SFR* 0000008AH   DATA     BYTE      TL0
*SFR* 0000008BH   DATA     BYTE      TL1
      000100F6H   XDATA    LONG      tly_jifen
*SFR* 00000089H   DATA     BYTE      TMOD
*SFR* 00000088H.4 DATA     BIT       TR0
*SFR* 00000088H.6 DATA     BIT       TR1
*DEL*:00000000H   CODE     ---       UART1_config
*DEL*:00000000H   CODE     ---       UART1_GetChar
L251 LINKER/LOCATER V4.66.93.0                                                        09/25/2023  21:38:02  PAGE 15


      00FF2AB7H   CODE     ---       UART1_int
*DEL*:00000000H   CODE     ---       UART1_PutChar
*DEL*:00000000H   CODE     ---       UART1_PutStr
      00FF293BH   CODE     ---       UART4_config
*DEL*:00000000H   CODE     ---       UART4_GetChar
      00FF2684H   CODE     ---       UART4_int
*DEL*:00000000H   CODE     ---       UART4_PutBuff
*DEL*:00000000H   CODE     ---       UART4_PutChar
*DEL*:00000000H   CODE     ---       UART4_PutStr
      00010120H   XDATA    BYTE      Uart4_Receive
*DEL*:00000000H   CODE     ---       UART4_SendInt16
*SFR* 00000096H   DATA     BYTE      USBADR
*DEL*:00000000H   CODE     ---       Wait
*DEL*:00000000H   CODE     ---       WriteNbyte
*SFR* 00000092H   DATA     BYTE      WTST
      0001010AH   XDATA    INT       yxy
      000100FEH   XDATA    INT       zhongjian



SYMBOL TABLE OF MODULE:  .\Objects\LQdemo (main)

      VALUE       REP       CLASS    TYPE      SYMBOL NAME
      ====================================================
      ---         MODULE    ---      ---       main
      00FF25E4H   PUBLIC    CODE     ---       sysinit
      00FF1950H   PUBLIC    CODE     ---       main
      00010000H   PUBLIC    XDATA    BYTE      key1_status
      00010001H   PUBLIC    XDATA    BYTE      key2_status
      00010002H   PUBLIC    XDATA    BYTE      key3_status
      00010003H   PUBLIC    XDATA    BYTE      key1_last_status
      00010004H   PUBLIC    XDATA    BYTE      key2_last_status
      00010005H   PUBLIC    XDATA    BYTE      key3_last_status
      00010006H   PUBLIC    XDATA    ---       Direc_PID
      00010036H   PUBLIC    XDATA    ---       Speed_PID
      00010066H   PUBLIC    XDATA    CHAR      key_flag
      00010067H   PUBLIC    XDATA    BYTE      key1_flag
      00010068H   PUBLIC    XDATA    BYTE      key2_flag
      00010069H   PUBLIC    XDATA    BYTE      key3_flag
      000000F2H   SFRSYM    DATA     BYTE      P0M0
      000000D0H   SFRSYM    DATA     BYTE      PSW
      000000A9H   SFRSYM    DATA     BYTE      IRCBAND
      00000092H   SFRSYM    DATA     BYTE      WTST
      000000FFH   SFRSYM    DATA     BYTE      RSTCFG
      00000096H   SFRSYM    DATA     BYTE      USBADR
      000000E7H   SFRSYM    DATA     BYTE      IE2
      000000F8H.2 SFRSYM    DATA     BIT       P72
      000000F8H.1 SFRSYM    DATA     BIT       P71
      000000F8H.0 SFRSYM    DATA     BIT       P70
      00000088H   SFRSYM    DATA     BYTE      TCON
      00000098H   SFRSYM    DATA     BYTE      SCON
      000000C0H.0 SFRSYM    DATA     BIT       P40
      000000B8H   SFRSYM    DATA     BYTE      IP
      000000A8H   SFRSYM    DATA     BYTE      IE
      0000009BH   SFRSYM    DATA     BYTE      P_SW2
      000000F8H   SFRSYM    DATA     BYTE      P7
      000000A8H.7 SFRSYM    DATA     BIT       EA
      000000E8H   SFRSYM    DATA     BYTE      P6
      000000C8H   SFRSYM    DATA     BYTE      P5
      000000C0H   SFRSYM    DATA     BYTE      P4
      000000ECH   SFRSYM    DATA     BYTE      P5M1
      000000B0H   SFRSYM    DATA     BYTE      P3
      000000EDH   SFRSYM    DATA     BYTE      P5M0
      000000FBH   SFRSYM    DATA     BYTE      P4M1
      000000A0H   SFRSYM    DATA     BYTE      P2
L251 LINKER/LOCATER V4.66.93.0                                                        09/25/2023  21:38:02  PAGE 16


      000000F9H   SFRSYM    DATA     BYTE      P3M1
      000000FCH   SFRSYM    DATA     BYTE      P4M0
      00000090H   SFRSYM    DATA     BYTE      P1
      000000FAH   SFRSYM    DATA     BYTE      P3M0
      00000080H   SFRSYM    DATA     BYTE      P0
      000000F3H   SFRSYM    DATA     BYTE      P1M1
      000000F1H   SFRSYM    DATA     BYTE      P0M1
      000000F4H   SFRSYM    DATA     BYTE      P1M0

      00FF1950H   BLOCK     CODE     ---       LVL=0
      00FF1950H   LINE      CODE     ---       #63
      00FF1950H   LINE      CODE     ---       #65
      00FF1953H   LINE      CODE     ---       #66
      00FF195AH   LINE      CODE     ---       #67
      00FF195DH   LINE      CODE     ---       #69
      00FF196CH   LINE      CODE     ---       #71
      00FF1973H   LINE      CODE     ---       #74
      00FF1976H   LINE      CODE     ---       #75
      00FF1979H   LINE      CODE     ---       #76
      00FF1980H   LINE      CODE     ---       #77
      00FF1983H   LINE      CODE     ---       #78
      00FF1986H   LINE      CODE     ---       #79
      00FF1989H   LINE      CODE     ---       #81
      00FF198CH   LINE      CODE     ---       #82
      00FF198FH   LINE      CODE     ---       #85
      00FF199AH   LINE      CODE     ---       #86
      00FF19A5H   LINE      CODE     ---       #87
      00FF19B1H   LINE      CODE     ---       #88
      00FF19BBH   LINE      CODE     ---       #89
      00FF19C5H   LINE      CODE     ---       #90
      00FF19CFH   LINE      CODE     ---       #91
      00FF19D9H   LINE      CODE     ---       #92
      00FF19E3H   LINE      CODE     ---       #94
      00FF19E5H   LINE      CODE     ---       #101
      00FF19E5H   LINE      CODE     ---       #105
      00FF19E8H   LINE      CODE     ---       #107
      00FF19F0H   LINE      CODE     ---       #108
      00FF19F8H   LINE      CODE     ---       #109
      00FF1A00H   LINE      CODE     ---       #111
      00FF1A08H   LINE      CODE     ---       #112
      00FF1A10H   LINE      CODE     ---       #113
      00FF1A18H   LINE      CODE     ---       #116
      00FF1A2AH   LINE      CODE     ---       #117
      00FF1A3CH   LINE      CODE     ---       #118
      00FF1A4EH   LINE      CODE     ---       #121
      00FF1A54H   LINE      CODE     ---       #123
      00FF1A59H   LINE      CODE     ---       #124
      00FF1A63H   LINE      CODE     ---       #125
      00FF1A63H   LINE      CODE     ---       #127
      00FF1A69H   LINE      CODE     ---       #129
      00FF1A6EH   LINE      CODE     ---       #130
      00FF1A80H   LINE      CODE     ---       #131
      00FF1A9DH   LINE      CODE     ---       #132
      00FF1A9DH   LINE      CODE     ---       #134
      00FF1AA6H   LINE      CODE     ---       #136
      00FF1AABH   LINE      CODE     ---       #137
      00FF1AD0H   LINE      CODE     ---       #138
      00FF1AF2H   LINE      CODE     ---       #139
      00FF1AF2H   LINE      CODE     ---       #140
      ---         BLOCKEND  ---      ---       LVL=0

      00FF25E4H   BLOCK     CODE     ---       LVL=0
      00FF25E4H   LINE      CODE     ---       #151
      00FF25E4H   LINE      CODE     ---       #153
      00FF25E7H   LINE      CODE     ---       #154
L251 LINKER/LOCATER V4.66.93.0                                                        09/25/2023  21:38:02  PAGE 17


      00FF25EAH   LINE      CODE     ---       #157
      00FF25EDH   LINE      CODE     ---       #160
      00FF25F9H   LINE      CODE     ---       #161
      00FF25FCH   LINE      CODE     ---       #162
      00FF25FFH   LINE      CODE     ---       #163
      00FF2605H   LINE      CODE     ---       #164
      00FF260EH   LINE      CODE     ---       #165
      00FF2614H   LINE      CODE     ---       #166
      00FF261AH   LINE      CODE     ---       #167
      00FF2620H   LINE      CODE     ---       #168
      00FF2626H   LINE      CODE     ---       #171
      00FF262FH   LINE      CODE     ---       #172
      00FF2631H   LINE      CODE     ---       #173
      00FF2633H   LINE      CODE     ---       #174
      ---         BLOCKEND  ---      ---       LVL=0

      ---         MODULE    ---      ---       LQ_ADC
      00FF28C5H   PUBLIC    CODE     ---       ADC_Read
      00FF2983H   PUBLIC    CODE     ---       ADC_Init
      00FF2634H   PUBLIC    CODE     ---       ADC_Read_Average
      000000D0H   SFRSYM    DATA     BYTE      PSW
      000000DEH   SFRSYM    DATA     BYTE      ADC_RESL
      00000096H   SFRSYM    DATA     BYTE      USBADR
      000000E7H   SFRSYM    DATA     BYTE      IE2
      00000088H   SFRSYM    DATA     BYTE      TCON
      00000098H   SFRSYM    DATA     BYTE      SCON
      000000DCH   SFRSYM    DATA     BYTE      ADC_CONTR
      000000DFH   SFRSYM    DATA     BYTE      ADCCFG
      000000B8H   SFRSYM    DATA     BYTE      IP
      000000DDH   SFRSYM    DATA     BYTE      ADC_RES
      000000A8H   SFRSYM    DATA     BYTE      IE
      0000009BH   SFRSYM    DATA     BYTE      P_SW2
      000000F8H   SFRSYM    DATA     BYTE      P7
      000000E8H   SFRSYM    DATA     BYTE      P6
      000000C8H   SFRSYM    DATA     BYTE      P5
      000000C0H   SFRSYM    DATA     BYTE      P4
      000000B0H   SFRSYM    DATA     BYTE      P3
      000000A0H   SFRSYM    DATA     BYTE      P2
      00000090H   SFRSYM    DATA     BYTE      P1
      00000080H   SFRSYM    DATA     BYTE      P0

      00FF28C5H   BLOCK     CODE     ---       LVL=0
      R11         REGSYM    ---      BYTE      ADC_Channel_x
      00FF28C5H   LINE      CODE     ---       #36
      00FF28C5H   LINE      CODE     ---       #40
      00FF28C8H   LINE      CODE     ---       #41
      00FF28CBH   LINE      CODE     ---       #43
      00FF28CEH   LINE      CODE     ---       #44
      00FF28D8H   LINE      CODE     ---       #45
      00FF28D9H   LINE      CODE     ---       #46
      00FF28DAH   LINE      CODE     ---       #47
      00FF28DBH   LINE      CODE     ---       #48
      00FF28DCH   LINE      CODE     ---       #50
      00FF28E1H   LINE      CODE     ---       #51
      00FF28E4H   LINE      CODE     ---       #52
      00FF28F0H   LINE      CODE     ---       #53
      ---         BLOCKEND  ---      ---       LVL=0

      00FF2634H   BLOCK     CODE     ---       LVL=0
      R14         REGSYM    ---      BYTE      ADC_Channel_x
      R15         REGSYM    ---      BYTE      times
      00FF263CH   BLOCK     CODE     NEAR LAB  LVL=1
      0001006AH   SYMBOL    XDATA    DWORD     temp_val
      R13         REGSYM    ---      BYTE      t
      ---         BLOCKEND  ---      ---       LVL=1
L251 LINKER/LOCATER V4.66.93.0                                                        09/25/2023  21:38:02  PAGE 18


      00FF2634H   LINE      CODE     ---       #65
      00FF263CH   LINE      CODE     ---       #66
      00FF263CH   LINE      CODE     ---       #67
      00FF2648H   LINE      CODE     ---       #70
      00FF264CH   LINE      CODE     ---       #72
      00FF2668H   LINE      CODE     ---       #73
      00FF2668H   LINE      CODE     ---       #74
      00FF266EH   LINE      CODE     ---       #75
      00FF267FH   LINE      CODE     ---       #76
      ---         BLOCKEND  ---      ---       LVL=0

      00FF2983H   BLOCK     CODE     ---       LVL=0
      00FF2983H   LINE      CODE     ---       #87
      00FF2983H   LINE      CODE     ---       #89
      00FF2986H   LINE      CODE     ---       #90
      00FF2993H   LINE      CODE     ---       #91
      00FF2996H   LINE      CODE     ---       #92
      00FF2999H   LINE      CODE     ---       #93
      00FF299CH   LINE      CODE     ---       #94
      ---         BLOCKEND  ---      ---       LVL=0

      ---         MODULE    ---      ---       LQ_GPIO_EXIT
      00FF29E8H   PUBLIC    CODE     ---       INT0_int
      00FF29FFH   PUBLIC    CODE     ---       INT1_int
      00FF2A16H   PUBLIC    CODE     ---       INT3_int
      00FF2A2DH   PUBLIC    CODE     ---       INT4_int
      000101C4H   PUBLIC    XDATA    BYTE      INT0_cnt
      000101C5H   PUBLIC    XDATA    BYTE      INT1_cnt
      000101C6H   PUBLIC    XDATA    BYTE      INT2_cnt
      000101C7H   PUBLIC    XDATA    BYTE      INT3_cnt
      000101C8H   PUBLIC    XDATA    BYTE      INT4_cnt
      000000D0H   SFRSYM    DATA     BYTE      PSW
      00000088H.2 SFRSYM    DATA     BIT       IT1
      000000A8H.2 SFRSYM    DATA     BIT       EX1
      00000088H.0 SFRSYM    DATA     BIT       IT0
      000000A8H.0 SFRSYM    DATA     BIT       EX0
      00000096H   SFRSYM    DATA     BYTE      USBADR
      000000E7H   SFRSYM    DATA     BYTE      IE2
      00000088H.3 SFRSYM    DATA     BIT       IE1
      00000088H.1 SFRSYM    DATA     BIT       IE0
      00000088H   SFRSYM    DATA     BYTE      TCON
      00000098H   SFRSYM    DATA     BYTE      SCON
      000000B8H   SFRSYM    DATA     BYTE      IP
      00000095H   SFRSYM    DATA     BYTE      INTCLKO
      000000A8H   SFRSYM    DATA     BYTE      IE
      000000F8H   SFRSYM    DATA     BYTE      P7
      000000A8H.7 SFRSYM    DATA     BIT       EA
      000000E8H   SFRSYM    DATA     BYTE      P6
      000000C8H   SFRSYM    DATA     BYTE      P5
      000000C0H   SFRSYM    DATA     BYTE      P4
      000000B0H   SFRSYM    DATA     BYTE      P3
      000000A0H   SFRSYM    DATA     BYTE      P2
      00000090H   SFRSYM    DATA     BYTE      P1
      00000080H   SFRSYM    DATA     BYTE      P0

      00FF29E8H   BLOCK     CODE     ---       LVL=0
      00FF29E8H   LINE      CODE     ---       #44
      00FF29F0H   LINE      CODE     ---       #46
      00FF29F6H   LINE      CODE     ---       #47
      ---         BLOCKEND  ---      ---       LVL=0

      00FF29FFH   BLOCK     CODE     ---       LVL=0
      00FF29FFH   LINE      CODE     ---       #50
      00FF2A07H   LINE      CODE     ---       #52
      00FF2A0DH   LINE      CODE     ---       #53
L251 LINKER/LOCATER V4.66.93.0                                                        09/25/2023  21:38:02  PAGE 19


      ---         BLOCKEND  ---      ---       LVL=0

      00FF2A16H   BLOCK     CODE     ---       LVL=0
      00FF2A16H   LINE      CODE     ---       #64
      00FF2A1EH   LINE      CODE     ---       #66
      00FF2A24H   LINE      CODE     ---       #68
      ---         BLOCKEND  ---      ---       LVL=0

      00FF2A2DH   BLOCK     CODE     ---       LVL=0
      00FF2A2DH   LINE      CODE     ---       #71
      00FF2A35H   LINE      CODE     ---       #73
      00FF2A3BH   LINE      CODE     ---       #74
      ---         BLOCKEND  ---      ---       LVL=0

      ---         MODULE    ---      ---       LQ_GPIO_KEY
      00FF2AA8H   PUBLIC    CODE     ---       GPIO_KEY_Init
      000000D0H   SFRSYM    DATA     BYTE      PSW
      00000096H   SFRSYM    DATA     BYTE      USBADR
      000000E7H   SFRSYM    DATA     BYTE      IE2
      000000F8H.3 SFRSYM    DATA     BIT       P73
      000000F8H.2 SFRSYM    DATA     BIT       P72
      000000F8H.1 SFRSYM    DATA     BIT       P71
      000000F8H.0 SFRSYM    DATA     BIT       P70
      000000B0H.3 SFRSYM    DATA     BIT       P33
      00000088H   SFRSYM    DATA     BYTE      TCON
      000000B0H.2 SFRSYM    DATA     BIT       P32
      00000098H   SFRSYM    DATA     BYTE      SCON
      000000B8H   SFRSYM    DATA     BYTE      IP
      000000A8H   SFRSYM    DATA     BYTE      IE
      000000F8H   SFRSYM    DATA     BYTE      P7
      000000D2H   SFRSYM    DATA     BYTE      P7M1
      000000E8H   SFRSYM    DATA     BYTE      P6
      000000C8H   SFRSYM    DATA     BYTE      P5
      000000D3H   SFRSYM    DATA     BYTE      P7M0
      000000C0H   SFRSYM    DATA     BYTE      P4
      000000B0H   SFRSYM    DATA     BYTE      P3
      000000A0H   SFRSYM    DATA     BYTE      P2
      00000090H   SFRSYM    DATA     BYTE      P1
      00000080H   SFRSYM    DATA     BYTE      P0

      00FF2AA8H   BLOCK     CODE     ---       LVL=0
      00FF2AA8H   LINE      CODE     ---       #35
      00FF2AA8H   LINE      CODE     ---       #37
      00FF2AABH   LINE      CODE     ---       #38
      00FF2AAFH   LINE      CODE     ---       #39
      00FF2AB2H   LINE      CODE     ---       #40
      00FF2AB6H   LINE      CODE     ---       #41
      ---         BLOCKEND  ---      ---       LVL=0
      WR6         REGSYM    ---      INT       KEYno
      R10         REGSYM    ---      BYTE      tm
      R15         REGSYM    ---      BYTE      k
      R11         REGSYM    ---      BYTE      k

      ---         MODULE    ---      ---       LQ_GPIO_LED
      00FF2042H   PUBLIC    CODE     ---       LED_Ctrl
      00FF2AC6H   PUBLIC    CODE     ---       GPIO_LED_Init
      000000D0H   SFRSYM    DATA     BYTE      PSW
      00000096H   SFRSYM    DATA     BYTE      USBADR
      000000E7H   SFRSYM    DATA     BYTE      IE2
      000000E8H.2 SFRSYM    DATA     BIT       P62
      000000C0H.2 SFRSYM    DATA     BIT       P42
      00000088H   SFRSYM    DATA     BYTE      TCON
      00000098H   SFRSYM    DATA     BYTE      SCON
      000000A0H.1 SFRSYM    DATA     BIT       P21
      000000A0H.0 SFRSYM    DATA     BIT       P20
L251 LINKER/LOCATER V4.66.93.0                                                        09/25/2023  21:38:02  PAGE 20


      000000B8H   SFRSYM    DATA     BYTE      IP
      000000A8H   SFRSYM    DATA     BYTE      IE
      000000F8H   SFRSYM    DATA     BYTE      P7
      000000E8H   SFRSYM    DATA     BYTE      P6
      000000C8H   SFRSYM    DATA     BYTE      P5
      000000C0H   SFRSYM    DATA     BYTE      P4
      000000B0H   SFRSYM    DATA     BYTE      P3
      000000A0H   SFRSYM    DATA     BYTE      P2
      00000090H   SFRSYM    DATA     BYTE      P1
      000000F5H   SFRSYM    DATA     BYTE      P2M1
      00000080H   SFRSYM    DATA     BYTE      P0
      000000F6H   SFRSYM    DATA     BYTE      P2M0

      00FF2AC6H   BLOCK     CODE     ---       LVL=0
      00FF2AC6H   LINE      CODE     ---       #36
      00FF2AC6H   LINE      CODE     ---       #38
      00FF2AC9H   LINE      CODE     ---       #39
      00FF2ACDH   LINE      CODE     ---       #40
      00FF2AD0H   LINE      CODE     ---       #41
      00FF2AD3H   LINE      CODE     ---       #42
      ---         BLOCKEND  ---      ---       LVL=0

      00FF2042H   BLOCK     CODE     ---       LVL=0
      WR6         REGSYM    ---      INT       LEDno
      WR4         REGSYM    ---      INT       sta
      00FF2042H   LINE      CODE     ---       #51
      00FF2042H   LINE      CODE     ---       #53
      00FF205CH   LINE      CODE     ---       #55
      00FF205CH   LINE      CODE     ---       #56
      00FF2063H   LINE      CODE     ---       #57
      00FF206CH   LINE      CODE     ---       #58
      00FF207DH   LINE      CODE     ---       #59
      00FF207EH   LINE      CODE     ---       #61
      00FF207EH   LINE      CODE     ---       #62
      00FF2085H   LINE      CODE     ---       #63
      00FF208EH   LINE      CODE     ---       #64
      00FF209FH   LINE      CODE     ---       #65
      00FF20A0H   LINE      CODE     ---       #67
      00FF20A0H   LINE      CODE     ---       #68
      00FF20A7H   LINE      CODE     ---       #69
      00FF20B0H   LINE      CODE     ---       #70
      00FF20BEH   LINE      CODE     ---       #71
      00FF20BFH   LINE      CODE     ---       #73
      00FF20BFH   LINE      CODE     ---       #74
      00FF20C6H   LINE      CODE     ---       #75
      00FF20CFH   LINE      CODE     ---       #76
      00FF20DDH   LINE      CODE     ---       #77
      00FF20DEH   LINE      CODE     ---       #78
      00FF20DEH   LINE      CODE     ---       #79
      00FF20E2H   LINE      CODE     ---       #81
      00FF20E4H   LINE      CODE     ---       #82
      00FF20E6H   LINE      CODE     ---       #83
      00FF20E8H   LINE      CODE     ---       #84
      00FF20EAH   LINE      CODE     ---       #85
      00FF20EBH   LINE      CODE     ---       #86
      00FF20F1H   LINE      CODE     ---       #88
      00FF20F3H   LINE      CODE     ---       #89
      00FF20F5H   LINE      CODE     ---       #90
      00FF20F7H   LINE      CODE     ---       #91
      00FF20F9H   LINE      CODE     ---       #92
      00FF20FAH   LINE      CODE     ---       #93
      00FF2100H   LINE      CODE     ---       #95
      00FF2109H   LINE      CODE     ---       #96
      00FF2112H   LINE      CODE     ---       #97
      00FF211BH   LINE      CODE     ---       #98
L251 LINKER/LOCATER V4.66.93.0                                                        09/25/2023  21:38:02  PAGE 21


      00FF2123H   LINE      CODE     ---       #99
      00FF2123H   LINE      CODE     ---       #100
      00FF2123H   LINE      CODE     ---       #101
      00FF2123H   LINE      CODE     ---       #102
      00FF2123H   LINE      CODE     ---       #103
      ---         BLOCKEND  ---      ---       LVL=0
      WR6         REGSYM    ---      WORD      time
      000101C9H   SYMBOL    XDATA    INT       temp

      ---         MODULE    ---      ---       LQ_I2C
      000000D0H   SFRSYM    DATA     BYTE      PSW
      00000096H   SFRSYM    DATA     BYTE      USBADR
      000000E7H   SFRSYM    DATA     BYTE      IE2
      00000088H   SFRSYM    DATA     BYTE      TCON
      00000098H   SFRSYM    DATA     BYTE      SCON
      000000B8H   SFRSYM    DATA     BYTE      IP
      000000A8H   SFRSYM    DATA     BYTE      IE
      000000F8H   SFRSYM    DATA     BYTE      P7
      000000E8H   SFRSYM    DATA     BYTE      P6
      000000C8H   SFRSYM    DATA     BYTE      P5
      000000C0H   SFRSYM    DATA     BYTE      P4
      000000B0H   SFRSYM    DATA     BYTE      P3
      000000A0H   SFRSYM    DATA     BYTE      P2
      00000090H   SFRSYM    DATA     BYTE      P1
      00000080H   SFRSYM    DATA     BYTE      P0
      R11         REGSYM    ---      CHAR      dat
      REG=3       REGSYM    ---      ---       p
      REG=3       REGSYM    ---      ---       p

      ---         MODULE    ---      ---       LQ_OLED096
      00FF2B0DH   PUBLIC    HCONST   ---       F14x16
      00FF2E01H   PUBLIC    HCONST   ---       F14x16_Idx
      00FF2E38H   PUBLIC    HCONST   ---       F6x8
      00FF3060H   PUBLIC    HCONST   ---       F8X16
      00FF3650H   PUBLIC    HCONST   ---       longqiu104x64
      00FF2350H   PUBLIC    CODE     ---       OLED_Init
      00FF2960H   PUBLIC    CODE     ---       OLED_Set_Pos
      00FF1780H   PUBLIC    CODE     ---       OLED_P14x16Str
      00FF28F1H   PUBLIC    CODE     ---       OLED_WrCmd
      00FF0026H   PUBLIC    CODE     ---       OLED_CLS
      00FF2916H   PUBLIC    CODE     ---       OLED_WrDat
      00FF22A0H   PUBLIC    CODE     ---       OLED_P6x8Str
      000000D0H   SFRSYM    DATA     BYTE      PSW
      00000096H   SFRSYM    DATA     BYTE      USBADR
      000000E7H   SFRSYM    DATA     BYTE      IE2
      000000E8H.4 SFRSYM    DATA     BIT       P64
      000000E8H.3 SFRSYM    DATA     BIT       P63
      000000E8H.2 SFRSYM    DATA     BIT       P62
      000000E8H.1 SFRSYM    DATA     BIT       P61
      00000088H   SFRSYM    DATA     BYTE      TCON
      00000098H   SFRSYM    DATA     BYTE      SCON
      000000B8H   SFRSYM    DATA     BYTE      IP
      000000A8H   SFRSYM    DATA     BYTE      IE
      000000F8H   SFRSYM    DATA     BYTE      P7
      000000E8H   SFRSYM    DATA     BYTE      P6
      000000C8H   SFRSYM    DATA     BYTE      P5
      000000EEH   SFRSYM    DATA     BYTE      P6M1
      000000C0H   SFRSYM    DATA     BYTE      P4
      000000EFH   SFRSYM    DATA     BYTE      P6M0
      000000B0H   SFRSYM    DATA     BYTE      P3
      000000A0H   SFRSYM    DATA     BYTE      P2
      00000090H   SFRSYM    DATA     BYTE      P1
      00000080H   SFRSYM    DATA     BYTE      P0

      00FF2350H   BLOCK     CODE     ---       LVL=0
L251 LINKER/LOCATER V4.66.93.0                                                        09/25/2023  21:38:02  PAGE 22


      00FF2350H   LINE      CODE     ---       #66
      00FF2350H   LINE      CODE     ---       #68
      00FF2353H   LINE      CODE     ---       #69
      00FF2357H   LINE      CODE     ---       #70
      00FF235AH   LINE      CODE     ---       #71
      00FF235EH   LINE      CODE     ---       #78
      00FF2360H   LINE      CODE     ---       #80
      00FF2362H   LINE      CODE     ---       #81
      00FF2369H   LINE      CODE     ---       #82
      00FF236BH   LINE      CODE     ---       #84
      00FF2370H   LINE      CODE     ---       #85
      00FF2374H   LINE      CODE     ---       #86
      00FF2379H   LINE      CODE     ---       #87
      00FF237EH   LINE      CODE     ---       #88
      00FF2383H   LINE      CODE     ---       #89
      00FF2388H   LINE      CODE     ---       #90
      00FF238DH   LINE      CODE     ---       #91
      00FF2392H   LINE      CODE     ---       #92
      00FF2397H   LINE      CODE     ---       #93
      00FF239CH   LINE      CODE     ---       #94
      00FF23A1H   LINE      CODE     ---       #95
      00FF23A6H   LINE      CODE     ---       #96
      00FF23AAH   LINE      CODE     ---       #97
      00FF23AFH   LINE      CODE     ---       #98
      00FF23B4H   LINE      CODE     ---       #99
      00FF23B9H   LINE      CODE     ---       #100
      00FF23BEH   LINE      CODE     ---       #101
      00FF23C3H   LINE      CODE     ---       #102
      00FF23C8H   LINE      CODE     ---       #103
      00FF23CDH   LINE      CODE     ---       #104
      00FF23D2H   LINE      CODE     ---       #105
      00FF23D7H   LINE      CODE     ---       #106
      00FF23DCH   LINE      CODE     ---       #107
      00FF23E1H   LINE      CODE     ---       #108
      00FF23E6H   LINE      CODE     ---       #109
      00FF23EBH   LINE      CODE     ---       #110
      00FF23F0H   LINE      CODE     ---       #111
      00FF23F5H   LINE      CODE     ---       #112
      00FF23F8H   LINE      CODE     ---       #113
      ---         BLOCKEND  ---      ---       LVL=0
      WR6         REGSYM    ---      WORD      Del

      00FF2916H   BLOCK     CODE     ---       LVL=0
      R7          REGSYM    ---      BYTE      dat
      00FF2918H   BLOCK     CODE     NEAR LAB  LVL=1
      R6          REGSYM    ---      BYTE      i
      ---         BLOCKEND  ---      ---       LVL=1
      00FF2916H   LINE      CODE     ---       #468
      00FF2918H   LINE      CODE     ---       #469
      00FF2918H   LINE      CODE     ---       #470
      00FF291BH   LINE      CODE     ---       #472
      00FF291DH   LINE      CODE     ---       #473
      00FF291FH   LINE      CODE     ---       #475
      00FF2921H   LINE      CODE     ---       #477
      00FF292AH   LINE      CODE     ---       #478
      00FF292CH   LINE      CODE     ---       #479
      00FF292EH   LINE      CODE     ---       #482
      00FF2930H   LINE      CODE     ---       #483
      00FF2932H   LINE      CODE     ---       #484
      00FF293AH   LINE      CODE     ---       #486
      ---         BLOCKEND  ---      ---       LVL=0

      00FF28F1H   BLOCK     CODE     ---       LVL=0
      R7          REGSYM    ---      BYTE      cmd
      00FF28F3H   BLOCK     CODE     NEAR LAB  LVL=1
L251 LINKER/LOCATER V4.66.93.0                                                        09/25/2023  21:38:02  PAGE 23


      R6          REGSYM    ---      BYTE      i
      ---         BLOCKEND  ---      ---       LVL=1
      00FF28F1H   LINE      CODE     ---       #501
      00FF28F3H   LINE      CODE     ---       #502
      00FF28F3H   LINE      CODE     ---       #503
      00FF28F6H   LINE      CODE     ---       #506
      00FF28F8H   LINE      CODE     ---       #507
      00FF28FAH   LINE      CODE     ---       #509
      00FF28FCH   LINE      CODE     ---       #511
      00FF2905H   LINE      CODE     ---       #512
      00FF2907H   LINE      CODE     ---       #513
      00FF2909H   LINE      CODE     ---       #515
      00FF290BH   LINE      CODE     ---       #516
      00FF290DH   LINE      CODE     ---       #517
      00FF2915H   LINE      CODE     ---       #519
      ---         BLOCKEND  ---      ---       LVL=0

      00FF2960H   BLOCK     CODE     ---       LVL=0
      R15         REGSYM    ---      BYTE      x
      R10         REGSYM    ---      BYTE      y
      00FF2964H   BLOCK     CODE     NEAR LAB  LVL=1
      R11         REGSYM    ---      BYTE      tm
      ---         BLOCKEND  ---      ---       LVL=1
      00FF2960H   LINE      CODE     ---       #535
      00FF2964H   LINE      CODE     ---       #536
      00FF2964H   LINE      CODE     ---       #538
      00FF296AH   LINE      CODE     ---       #539
      00FF296DH   LINE      CODE     ---       #540
      00FF2979H   LINE      CODE     ---       #541
      00FF2980H   LINE      CODE     ---       #542
      ---         BLOCKEND  ---      ---       LVL=0
      R15         REGSYM    ---      BYTE      y
      R13         REGSYM    ---      BYTE      x
      R7          REGSYM    ---      BYTE      tm

      00FF0026H   BLOCK     CODE     ---       LVL=0
      00FF002AH   BLOCK     CODE     NEAR LAB  LVL=1
      R15         REGSYM    ---      BYTE      y
      R13         REGSYM    ---      BYTE      x
      R7          REGSYM    ---      BYTE      tm
      ---         BLOCKEND  ---      ---       LVL=1
      00FF0026H   LINE      CODE     ---       #586
      00FF002AH   LINE      CODE     ---       #587
      00FF002AH   LINE      CODE     ---       #590
      00FF002CH   LINE      CODE     ---       #592
      00FF0032H   LINE      CODE     ---       #593
      00FF0037H   LINE      CODE     ---       #594
      00FF003CH   LINE      CODE     ---       #595
      00FF0041H   LINE      CODE     ---       #596
      00FF0043H   LINE      CODE     ---       #597
      00FF004EH   LINE      CODE     ---       #598
      00FF0055H   LINE      CODE     ---       #599
      ---         BLOCKEND  ---      ---       LVL=0
      R14         REGSYM    ---      BYTE      x
      R15         REGSYM    ---      BYTE      y
      R13         REGSYM    ---      BYTE      data1
      R15         REGSYM    ---      BYTE      x
      R14         REGSYM    ---      BYTE      y
      R15         REGSYM    ---      BYTE      x1
      R12         REGSYM    ---      BYTE      y1
      R13         REGSYM    ---      BYTE      y2
      R14         REGSYM    ---      BYTE      gif

      00FF22A0H   BLOCK     CODE     ---       LVL=0
      000100ACH   SYMBOL    XDATA    BYTE      x
L251 LINKER/LOCATER V4.66.93.0                                                        09/25/2023  21:38:02  PAGE 24


      000100ADH   SYMBOL    XDATA    BYTE      y
      REG=3       REGSYM    ---      ---       ch
      00FF22AEH   BLOCK     CODE     NEAR LAB  LVL=1
      000100AEH   SYMBOL    XDATA    BYTE      c
      000100AFH   SYMBOL    XDATA    BYTE      i
      000100B0H   SYMBOL    XDATA    BYTE      j
      ---         BLOCKEND  ---      ---       LVL=1
      00FF22A0H   LINE      CODE     ---       #725
      00FF22AEH   LINE      CODE     ---       #726
      00FF22AEH   LINE      CODE     ---       #727
      00FF22BBH   LINE      CODE     ---       #728
      00FF22BDH   LINE      CODE     ---       #730
      00FF22D4H   LINE      CODE     ---       #731
      00FF22E8H   LINE      CODE     ---       #732
      00FF22F5H   LINE      CODE     ---       #733
      00FF22FAH   LINE      CODE     ---       #734
      00FF232EH   LINE      CODE     ---       #735
      00FF2335H   LINE      CODE     ---       #736
      00FF233BH   LINE      CODE     ---       #737
      00FF234DH   LINE      CODE     ---       #738
      ---         BLOCKEND  ---      ---       LVL=0
      REG=3       REGSYM    ---      ---       ch

      00FF1780H   BLOCK     CODE     ---       LVL=0
      0001008EH   SYMBOL    XDATA    BYTE      x
      0001008FH   SYMBOL    XDATA    BYTE      y
      REG=3       REGSYM    ---      ---       ch
      00FF178EH   BLOCK     CODE     NEAR LAB  LVL=1
      00010090H   SYMBOL    XDATA    BYTE      wm
      00010091H   SYMBOL    XDATA    BYTE      ii
      00010092H   SYMBOL    XDATA    WORD      adder
      00010094H   SYMBOL    XDATA    BYTE      tm
      ---         BLOCKEND  ---      ---       LVL=1
      00FF1780H   LINE      CODE     ---       #792
      00FF178EH   LINE      CODE     ---       #793
      00FF178EH   LINE      CODE     ---       #794
      00FF1797H   LINE      CODE     ---       #795
      00FF17A1H   LINE      CODE     ---       #797
      00FF17A4H   LINE      CODE     ---       #799
      00FF17A9H   LINE      CODE     ---       #800
      00FF17B3H   LINE      CODE     ---       #801
      00FF17B5H   LINE      CODE     ---       #803
      00FF17DBH   LINE      CODE     ---       #805
      00FF17EEH   LINE      CODE     ---       #807
      00FF17FEH   LINE      CODE     ---       #808
      00FF1800H   LINE      CODE     ---       #809
      00FF1800H   LINE      CODE     ---       #811
      00FF1807H   LINE      CODE     ---       #812
      00FF181FH   LINE      CODE     ---       #813
      00FF1833H   LINE      CODE     ---       #814
      00FF1840H   LINE      CODE     ---       #815
      00FF184FH   LINE      CODE     ---       #817
      00FF185CH   LINE      CODE     ---       #818
      00FF1861H   LINE      CODE     ---       #820
      00FF1877H   LINE      CODE     ---       #821
      00FF1882H   LINE      CODE     ---       #822
      00FF188FH   LINE      CODE     ---       #823
      00FF189DH   LINE      CODE     ---       #824
      00FF18A4H   LINE      CODE     ---       #826
      00FF18A9H   LINE      CODE     ---       #828
      00FF18BFH   LINE      CODE     ---       #829
      00FF18CAH   LINE      CODE     ---       #830
      00FF18D7H   LINE      CODE     ---       #831
      00FF18D9H   LINE      CODE     ---       #834
      00FF18DFH   LINE      CODE     ---       #835
L251 LINKER/LOCATER V4.66.93.0                                                        09/25/2023  21:38:02  PAGE 25


      00FF18ECH   LINE      CODE     ---       #836
      00FF18F1H   LINE      CODE     ---       #838
      00FF18F5H   LINE      CODE     ---       #839
      00FF1902H   LINE      CODE     ---       #840
      00FF1910H   LINE      CODE     ---       #841
      00FF1917H   LINE      CODE     ---       #843
      00FF191CH   LINE      CODE     ---       #845
      00FF1920H   LINE      CODE     ---       #846
      00FF192DH   LINE      CODE     ---       #847
      00FF192DH   LINE      CODE     ---       #848
      00FF1934H   LINE      CODE     ---       #849
      00FF193BH   LINE      CODE     ---       #850
      00FF194DH   LINE      CODE     ---       #851
      ---         BLOCKEND  ---      ---       LVL=0
      R3          REGSYM    ---      BYTE      y0
      R10         REGSYM    ---      BYTE      wide
      R2          REGSYM    ---      BYTE      high
      REG=3       REGSYM    ---      ---       bmp
      WR14        REGSYM    ---      WORD      ii
      R12         REGSYM    ---      BYTE      x
      R13         REGSYM    ---      BYTE      y
      REG=3       REGSYM    ---      ---       Pixle
      R15         REGSYM    ---      BYTE      cnt

      ---         MODULE    ---      ---       LQ_SPI
      000000BBH   SFRSYM    DATA     BYTE      SPDAT
      000000D0H   SFRSYM    DATA     BYTE      PSW
      000000A0H.3 SFRSYM    DATA     BIT       LQ_IMU_SI
      000000B9H   SFRSYM    DATA     BYTE      SPSTAT
      000000A0H.2 SFRSYM    DATA     BIT       LQ_IMU_CE
      00000096H   SFRSYM    DATA     BYTE      USBADR
      000000E7H   SFRSYM    DATA     BYTE      IE2
      00000088H   SFRSYM    DATA     BYTE      TCON
      00000098H   SFRSYM    DATA     BYTE      SCON
      000000A0H.5 SFRSYM    DATA     BIT       LQ_IMU_SCK
      000000B8H   SFRSYM    DATA     BYTE      IP
      000000A8H   SFRSYM    DATA     BYTE      IE
      0000009AH   SFRSYM    DATA     BYTE      P_SW1
      000000BAH   SFRSYM    DATA     BYTE      SPCTL
      000000F8H   SFRSYM    DATA     BYTE      P7
      000000E8H   SFRSYM    DATA     BYTE      P6
      000000C8H   SFRSYM    DATA     BYTE      P5
      000000C0H   SFRSYM    DATA     BYTE      P4
      000000B0H   SFRSYM    DATA     BYTE      P3
      000000A0H   SFRSYM    DATA     BYTE      P2
      00000090H   SFRSYM    DATA     BYTE      P1
      00000080H   SFRSYM    DATA     BYTE      P0
      R11         REGSYM    ---      BYTE      out
      R7          REGSYM    ---      BYTE      addr
      REG=3       REGSYM    ---      ---       lqbuf
      REG=3       REGSYM    ---      ---       lqbuf

      ---         MODULE    ---      ---       LQ_TIMER
      00FF0006H   PUBLIC    CODE     ---       timer2_int
      00FF282AH   PUBLIC    CODE     ---       timer3_int
      00FF2860H   PUBLIC    CODE     ---       timer4_int
      00FF0066H   PUBLIC    CODE     ---       Timer0_init
      000000D0H   SFRSYM    DATA     BYTE      PSW
      000000DBH   SFRSYM    DATA     BYTE      T4T3M
      00000088H.6 SFRSYM    DATA     BIT       TR1
      00000088H.4 SFRSYM    DATA     BIT       TR0
      000000CAH   SFRSYM    DATA     BYTE      T4L
      000000CCH   SFRSYM    DATA     BYTE      T3L
      000000CEH   SFRSYM    DATA     BYTE      T2L
      0000008BH   SFRSYM    DATA     BYTE      TL1
L251 LINKER/LOCATER V4.66.93.0                                                        09/25/2023  21:38:02  PAGE 26


      0000008AH   SFRSYM    DATA     BYTE      TL0
      000000C9H   SFRSYM    DATA     BYTE      T4H
      000000CBH   SFRSYM    DATA     BYTE      T3H
      000000CDH   SFRSYM    DATA     BYTE      T2H
      0000008DH   SFRSYM    DATA     BYTE      TH1
      000000E7H.6 SFRSYM    DATA     BIT       ET4
      0000008CH   SFRSYM    DATA     BYTE      TH0
      000000E7H.5 SFRSYM    DATA     BIT       ET3
      000000E7H.2 SFRSYM    DATA     BIT       ET2
      000000A8H.3 SFRSYM    DATA     BIT       ET1
      000000A8H.1 SFRSYM    DATA     BIT       ET0
      00000096H   SFRSYM    DATA     BYTE      USBADR
      00000093H   SFRSYM    DATA     BYTE      AUXR
      000000E7H   SFRSYM    DATA     BYTE      IE2
      00000088H   SFRSYM    DATA     BYTE      TCON
      00000089H   SFRSYM    DATA     BYTE      TMOD
      00000098H   SFRSYM    DATA     BYTE      SCON
      000000B8H   SFRSYM    DATA     BYTE      IP
      00000095H   SFRSYM    DATA     BYTE      INTCLKO
      000000A8H   SFRSYM    DATA     BYTE      IE
      000000F8H   SFRSYM    DATA     BYTE      P7
      000000E8H   SFRSYM    DATA     BYTE      P6
      000000C8H   SFRSYM    DATA     BYTE      P5
      000000C0H   SFRSYM    DATA     BYTE      P4
      000000B0H   SFRSYM    DATA     BYTE      P3
      000000A0H   SFRSYM    DATA     BYTE      P2
      00000090H   SFRSYM    DATA     BYTE      P1
      00000080H   SFRSYM    DATA     BYTE      P0

      00FF0006H   BLOCK     CODE     ---       LVL=0
      00FF0006H   LINE      CODE     ---       #70
      00FF0006H   LINE      CODE     ---       #73
      ---         BLOCKEND  ---      ---       LVL=0

      00FF282AH   BLOCK     CODE     ---       LVL=0
      00FF282AH   LINE      CODE     ---       #75
      00FF2840H   LINE      CODE     ---       #77
      00FF2849H   LINE      CODE     ---       #78
      ---         BLOCKEND  ---      ---       LVL=0

      00FF2860H   BLOCK     CODE     ---       LVL=0
      00FF2860H   LINE      CODE     ---       #79
      00FF2876H   LINE      CODE     ---       #81
      00FF287FH   LINE      CODE     ---       #82
      ---         BLOCKEND  ---      ---       LVL=0

      00FF0066H   BLOCK     CODE     ---       LVL=0
      00FF0066H   LINE      CODE     ---       #91
      00FF0066H   LINE      CODE     ---       #93
      00FF0068H   LINE      CODE     ---       #99
      00FF006AH   LINE      CODE     ---       #101
      00FF006DH   LINE      CODE     ---       #102
      00FF0071H   LINE      CODE     ---       #104
      00FF0074H   LINE      CODE     ---       #106
      00FF0077H   LINE      CODE     ---       #113
      00FF007AH   LINE      CODE     ---       #114
      00FF007DH   LINE      CODE     ---       #115
      00FF0080H   LINE      CODE     ---       #118
      00FF0082H   LINE      CODE     ---       #123
      ---         BLOCKEND  ---      ---       LVL=0

      ---         MODULE    ---      ---       LQ_ICM20689
      00FF2763H   PUBLIC    CODE     ---       SPI_SoftReadWriteNbyte
      00FF2A5BH   PUBLIC    CODE     ---       SPI_SoftInit
      00FF27E9H   PUBLIC    CODE     ---       ICM_Set_LPF
L251 LINKER/LOCATER V4.66.93.0                                                        09/25/2023  21:38:02  PAGE 27


      00FF299DH   PUBLIC    CODE     ---       ICM_Read_Byte
      00FF2A6FH   PUBLIC    CODE     ---       ICM_Set_Accel_Fsr
      00FF2AD4H   PUBLIC    CODE     ---       ICM_Read_Len
      00FF29B7H   PUBLIC    CODE     ---       ICM_Write_Byte
      00FF2896H   PUBLIC    CODE     ---       ICM_Set_Rate
      00FF23FEH   PUBLIC    CODE     ---       ICM20689_Init
      00FF21E3H   PUBLIC    CODE     ---       ICM_Get_Raw_data
      00FF2A82H   PUBLIC    CODE     ---       ICM_Set_Gyro_Fsr
      000101ACH   PUBLIC    XDATA    FLOAT     temp_p
      000101B0H   PUBLIC    XDATA    INT       aacx1
      000101B2H   PUBLIC    XDATA    INT       aacy1
      000101B4H   PUBLIC    XDATA    INT       aacz1
      000101B6H   PUBLIC    XDATA    INT       gyrox1
      000101B8H   PUBLIC    XDATA    INT       gyroy1
      000101BAH   PUBLIC    XDATA    INT       gyroz1
      00010066H   PUBLIC    XDATA    BYTE      ?ICM_Get_Raw_data?BYTE
      000000D0H   SFRSYM    DATA     BYTE      PSW
      00000096H   SFRSYM    DATA     BYTE      USBADR
      000000E7H   SFRSYM    DATA     BYTE      IE2
      000000A0H.5 SFRSYM    DATA     BIT       P25
      000000A0H.4 SFRSYM    DATA     BIT       P24
      00000088H   SFRSYM    DATA     BYTE      TCON
      000000A0H.3 SFRSYM    DATA     BIT       P23
      00000098H   SFRSYM    DATA     BYTE      SCON
      000000A0H.2 SFRSYM    DATA     BIT       P22
      000000B8H   SFRSYM    DATA     BYTE      IP
      000000A8H   SFRSYM    DATA     BYTE      IE
      000000F8H   SFRSYM    DATA     BYTE      P7
      000000E8H   SFRSYM    DATA     BYTE      P6
      000000C8H   SFRSYM    DATA     BYTE      P5
      000000C0H   SFRSYM    DATA     BYTE      P4
      000000B0H   SFRSYM    DATA     BYTE      P3
      000000A0H   SFRSYM    DATA     BYTE      P2
      00000090H   SFRSYM    DATA     BYTE      P1
      000000F5H   SFRSYM    DATA     BYTE      P2M1
      00000080H   SFRSYM    DATA     BYTE      P0
      000000F6H   SFRSYM    DATA     BYTE      P2M0

      00FF23FEH   BLOCK     CODE     ---       LVL=0
      00FF2400H   BLOCK     CODE     NEAR LAB  LVL=1
      0001008EH   SYMBOL    XDATA    ---       txt
      R15         REGSYM    ---      BYTE      res
      ---         BLOCKEND  ---      ---       LVL=1
      00FF23FEH   LINE      CODE     ---       #121
      00FF2400H   LINE      CODE     ---       #122
      00FF2400H   LINE      CODE     ---       #126
      00FF2403H   LINE      CODE     ---       #127
      00FF240AH   LINE      CODE     ---       #128
      00FF2411H   LINE      CODE     ---       #129
      00FF242CH   LINE      CODE     ---       #130
      00FF243CH   LINE      CODE     ---       #132
      00FF2441H   LINE      CODE     ---       #136
      00FF2445H   LINE      CODE     ---       #137
      00FF2445H   LINE      CODE     ---       #141
      00FF2445H   LINE      CODE     ---       #143
      00FF244DH   LINE      CODE     ---       #144
      00FF2454H   LINE      CODE     ---       #145
      00FF245BH   LINE      CODE     ---       #146
      00FF2462H   LINE      CODE     ---       #148
      00FF2467H   LINE      CODE     ---       #149
      00FF246CH   LINE      CODE     ---       #150
      00FF2473H   LINE      CODE     ---       #152
      00FF247BH   LINE      CODE     ---       #153
      00FF2482H   LINE      CODE     ---       #154
      00FF2489H   LINE      CODE     ---       #155
L251 LINKER/LOCATER V4.66.93.0                                                        09/25/2023  21:38:02  PAGE 28


      00FF2490H   LINE      CODE     ---       #156
      00FF2498H   LINE      CODE     ---       #157
      00FF249FH   LINE      CODE     ---       #159
      00FF24A0H   LINE      CODE     ---       #160
      ---         BLOCKEND  ---      ---       LVL=0

      00FF2A5BH   BLOCK     CODE     ---       LVL=0
      00FF2A5BH   LINE      CODE     ---       #170
      00FF2A5BH   LINE      CODE     ---       #175
      00FF2A61H   LINE      CODE     ---       #176
      00FF2A6EH   LINE      CODE     ---       #178
      ---         BLOCKEND  ---      ---       LVL=0

      00FF2763H   BLOCK     CODE     ---       LVL=0
      REG=7       REGSYM    ---      ---       lqbuff
      WR8         REGSYM    ---      WORD      len
      00FF2767H   BLOCK     CODE     NEAR LAB  LVL=1
      R10         REGSYM    ---      BYTE      i
      ---         BLOCKEND  ---      ---       LVL=1
      00FF2763H   LINE      CODE     ---       #187
      00FF2767H   LINE      CODE     ---       #188
      00FF2767H   LINE      CODE     ---       #191
      00FF2769H   LINE      CODE     ---       #192
      00FF276BH   LINE      CODE     ---       #193
      00FF276BH   LINE      CODE     ---       #195
      00FF276DH   LINE      CODE     ---       #197
      00FF277BH   LINE      CODE     ---       #198
      00FF277DH   LINE      CODE     ---       #199
      00FF2782H   LINE      CODE     ---       #201
      00FF2784H   LINE      CODE     ---       #203
      00FF2792H   LINE      CODE     ---       #204
      00FF2799H   LINE      CODE     ---       #205
      00FF279BH   LINE      CODE     ---       #206
      00FF27A3H   LINE      CODE     ---       #207
      00FF27A5H   LINE      CODE     ---       #208
      ---         BLOCKEND  ---      ---       LVL=0

      00FF2AD4H   BLOCK     CODE     ---       LVL=0
      R11         REGSYM    ---      BYTE      reg
      R10         REGSYM    ---      BYTE      len
      REG=7       REGSYM    ---      ---       buf
      00FF2AD4H   LINE      CODE     ---       #217
      00FF2AD6H   LINE      CODE     ---       #220
      00FF2ADBH   LINE      CODE     ---       #221
      ---         BLOCKEND  ---      ---       LVL=0
      REG=3       REGSYM    ---      ---       gy
      REG=3       REGSYM    ---      ---       ay

      00FF21E3H   BLOCK     CODE     ---       LVL=0
      0001006AH   SYMBOL    XDATA    ---       ax
      REG=3       REGSYM    ---      ---       ay
      0001006EH   SYMBOL    XDATA    ---       az
      00010072H   SYMBOL    XDATA    ---       gx
      00010076H   SYMBOL    XDATA    ---       gy
      0001007AH   SYMBOL    XDATA    ---       gz
      00FF21F1H   BLOCK     CODE     NEAR LAB  LVL=1
      0001007EH   SYMBOL    XDATA    ---       buf
      ---         BLOCKEND  ---      ---       LVL=1
      00FF21E3H   LINE      CODE     ---       #270
      00FF21F1H   LINE      CODE     ---       #271
      00FF21F1H   LINE      CODE     ---       #273
      00FF2201H   LINE      CODE     ---       #275
      00FF221EH   LINE      CODE     ---       #276
      00FF2231H   LINE      CODE     ---       #277
      00FF224CH   LINE      CODE     ---       #278
L251 LINKER/LOCATER V4.66.93.0                                                        09/25/2023  21:38:02  PAGE 29


      00FF2267H   LINE      CODE     ---       #279
      00FF2282H   LINE      CODE     ---       #280
      00FF229DH   LINE      CODE     ---       #281
      ---         BLOCKEND  ---      ---       LVL=0

      00FF29B7H   BLOCK     CODE     ---       LVL=0
      R11         REGSYM    ---      BYTE      reg
      R10         REGSYM    ---      BYTE      value
      00010098H   SYMBOL    XDATA    ---       buff
      00FF29B7H   LINE      CODE     ---       #291
      00FF29B7H   LINE      CODE     ---       #292
      00FF29B7H   LINE      CODE     ---       #295
      00FF29BBH   LINE      CODE     ---       #296
      00FF29C1H   LINE      CODE     ---       #297
      ---         BLOCKEND  ---      ---       LVL=0

      00FF299DH   BLOCK     CODE     ---       LVL=0
      R7          REGSYM    ---      BYTE      reg
      00010098H   SYMBOL    XDATA    ---       buff
      00FF299DH   LINE      CODE     ---       #315
      00FF299DH   LINE      CODE     ---       #316
      00FF299DH   LINE      CODE     ---       #319
      00FF29A3H   LINE      CODE     ---       #320
      00FF29B2H   LINE      CODE     ---       #321
      00FF29B6H   LINE      CODE     ---       #330
      ---         BLOCKEND  ---      ---       LVL=0

      00FF2A82H   BLOCK     CODE     ---       LVL=0
      R10         REGSYM    ---      BYTE      fsr
      00FF2A82H   LINE      CODE     ---       #339
      00FF2A84H   LINE      CODE     ---       #341
      ---         BLOCKEND  ---      ---       LVL=0

      00FF2A6FH   BLOCK     CODE     ---       LVL=0
      R10         REGSYM    ---      BYTE      fsr
      00FF2A6FH   LINE      CODE     ---       #351
      00FF2A71H   LINE      CODE     ---       #353
      ---         BLOCKEND  ---      ---       LVL=0

      00FF27E9H   BLOCK     CODE     ---       LVL=0
      WR6         REGSYM    ---      WORD      lpf
      R10         REGSYM    ---      BYTE      dat
      00FF27E9H   LINE      CODE     ---       #363
      00FF27E9H   LINE      CODE     ---       #364
      00FF27E9H   LINE      CODE     ---       #365
      00FF27E9H   LINE      CODE     ---       #366
      00FF27F4H   LINE      CODE     ---       #367
      00FF27FFH   LINE      CODE     ---       #368
      00FF280AH   LINE      CODE     ---       #369
      00FF2815H   LINE      CODE     ---       #370
      00FF2820H   LINE      CODE     ---       #371
      00FF2823H   LINE      CODE     ---       #372
      ---         BLOCKEND  ---      ---       LVL=0

      00FF2896H   BLOCK     CODE     ---       LVL=0
      WR14        REGSYM    ---      WORD      rate
      00FF289AH   BLOCK     CODE     NEAR LAB  LVL=1
      R7          REGSYM    ---      BYTE      dat
      ---         BLOCKEND  ---      ---       LVL=1
      00FF2896H   LINE      CODE     ---       #382
      00FF289AH   LINE      CODE     ---       #383
      00FF289AH   LINE      CODE     ---       #385
      00FF28A4H   LINE      CODE     ---       #386
      00FF28AEH   LINE      CODE     ---       #387
      00FF28B6H   LINE      CODE     ---       #388
L251 LINKER/LOCATER V4.66.93.0                                                        09/25/2023  21:38:02  PAGE 30


      00FF28BBH   LINE      CODE     ---       #389
      00FF28C2H   LINE      CODE     ---       #390
      ---         BLOCKEND  ---      ---       LVL=0
      WR4         REGSYM    ---      WORD      raw
      DR4         REGSYM    ---      FLOAT     temp

      ---         MODULE    ---      ---       LQ_MotorServo
      00FF1F1AH   PUBLIC    CODE     ---       MotorInit
      00FF2124H   PUBLIC    CODE     ---       MotorCtrl
      000101BCH   PUBLIC    XDATA    WORD      PWM1_Duty
      000101BEH   PUBLIC    XDATA    WORD      PWM2_Duty
      000101C0H   PUBLIC    XDATA    WORD      PWM3_Duty
      000101C2H   PUBLIC    XDATA    WORD      PWM4_Duty
      000000D0H   SFRSYM    DATA     BYTE      PSW
      00000096H   SFRSYM    DATA     BYTE      USBADR
      000000E7H   SFRSYM    DATA     BYTE      IE2
      00000088H   SFRSYM    DATA     BYTE      TCON
      00000098H   SFRSYM    DATA     BYTE      SCON
      000000B8H   SFRSYM    DATA     BYTE      IP
      000000A8H   SFRSYM    DATA     BYTE      IE
      0000009BH   SFRSYM    DATA     BYTE      P_SW2
      000000F8H   SFRSYM    DATA     BYTE      P7
      000000E8H   SFRSYM    DATA     BYTE      P6
      000000C8H   SFRSYM    DATA     BYTE      P5
      000000C0H   SFRSYM    DATA     BYTE      P4
      000000B0H   SFRSYM    DATA     BYTE      P3
      000000A0H   SFRSYM    DATA     BYTE      P2
      00000090H   SFRSYM    DATA     BYTE      P1
      00000080H   SFRSYM    DATA     BYTE      P0
      00FF3C9FH   SYMBOL    HCONST   ---       ?tpl?0001

      00FF1F1AH   BLOCK     CODE     ---       LVL=0
      WR30        REGSYM    ---      WORD      freq
      00FF1F1AH   LINE      CODE     ---       #97
      00FF1F1EH   LINE      CODE     ---       #99
      00FF1F21H   LINE      CODE     ---       #100
      00FF1F2EH   LINE      CODE     ---       #101
      00FF1F3AH   LINE      CODE     ---       #102
      00FF1F41H   LINE      CODE     ---       #103
      00FF1F4FH   LINE      CODE     ---       #104
      00FF1F56H   LINE      CODE     ---       #105
      00FF1F5DH   LINE      CODE     ---       #106
      00FF1F64H   LINE      CODE     ---       #107
      00FF1F69H   LINE      CODE     ---       #108
      00FF1F6CH   LINE      CODE     ---       #110
      00FF1F86H   LINE      CODE     ---       #111
      00FF1F93H   LINE      CODE     ---       #113
      00FF1F9BH   LINE      CODE     ---       #114
      00FF1FA4H   LINE      CODE     ---       #115
      00FF1FACH   LINE      CODE     ---       #116
      00FF1FB5H   LINE      CODE     ---       #117
      00FF1FBDH   LINE      CODE     ---       #118
      00FF1FC6H   LINE      CODE     ---       #119
      00FF1FCEH   LINE      CODE     ---       #120
      00FF1FD7H   LINE      CODE     ---       #122
      00FF1FDFH   LINE      CODE     ---       #123
      00FF1FE7H   LINE      CODE     ---       #124
      00FF1FEFH   LINE      CODE     ---       #125
      00FF1FF7H   LINE      CODE     ---       #126
      00FF1FFFH   LINE      CODE     ---       #127
      00FF2007H   LINE      CODE     ---       #128
      00FF200FH   LINE      CODE     ---       #129
      00FF2017H   LINE      CODE     ---       #130
      00FF201FH   LINE      CODE     ---       #131
      00FF2027H   LINE      CODE     ---       #132
L251 LINKER/LOCATER V4.66.93.0                                                        09/25/2023  21:38:02  PAGE 31


      00FF2030H   LINE      CODE     ---       #133
      00FF203CH   LINE      CODE     ---       #134
      00FF203FH   LINE      CODE     ---       #135
      ---         BLOCKEND  ---      ---       LVL=0

      00FF2124H   BLOCK     CODE     ---       LVL=0
      WR8         REGSYM    ---      INT       motor1
      WR0         REGSYM    ---      INT       motor2
      00FF2124H   LINE      CODE     ---       #190
      00FF2128H   LINE      CODE     ---       #192
      00FF212EH   LINE      CODE     ---       #194
      00FF2134H   LINE      CODE     ---       #195
      00FF2137H   LINE      CODE     ---       #196
      00FF2143H   LINE      CODE     ---       #197
      00FF214AH   LINE      CODE     ---       #198
      00FF2153H   LINE      CODE     ---       #199
      00FF215AH   LINE      CODE     ---       #200
      00FF215AH   LINE      CODE     ---       #201
      00FF215CH   LINE      CODE     ---       #204
      00FF215FH   LINE      CODE     ---       #205
      00FF216CH   LINE      CODE     ---       #206
      00FF2173H   LINE      CODE     ---       #207
      00FF217BH   LINE      CODE     ---       #208
      00FF2182H   LINE      CODE     ---       #209
      00FF2185H   LINE      CODE     ---       #210
      00FF2185H   LINE      CODE     ---       #211
      00FF218BH   LINE      CODE     ---       #213
      00FF2191H   LINE      CODE     ---       #214
      00FF2194H   LINE      CODE     ---       #215
      00FF21A0H   LINE      CODE     ---       #216
      00FF21A7H   LINE      CODE     ---       #217
      00FF21B0H   LINE      CODE     ---       #218
      00FF21B7H   LINE      CODE     ---       #219
      00FF21B7H   LINE      CODE     ---       #220
      00FF21B9H   LINE      CODE     ---       #223
      00FF21BCH   LINE      CODE     ---       #224
      00FF21C9H   LINE      CODE     ---       #225
      00FF21D0H   LINE      CODE     ---       #226
      00FF21D8H   LINE      CODE     ---       #227
      00FF21DFH   LINE      CODE     ---       #228
      00FF21E2H   LINE      CODE     ---       #229
      00FF21E2H   LINE      CODE     ---       #230
      ---         BLOCKEND  ---      ---       LVL=0
      WR14        REGSYM    ---      INT       duty
      WR30        REGSYM    ---      WORD      freq
      WR0         REGSYM    ---      WORD      duty
      WR14        REGSYM    ---      WORD      duty

      ---         MODULE    ---      ---       LQ_Encoder
      00FF2A95H   PUBLIC    CODE     ---       Timer34EncInit
      00FF2514H   PUBLIC    CODE     ---       Read_Encoder
      000000D0H   SFRSYM    DATA     BYTE      PSW
      000000DBH   SFRSYM    DATA     BYTE      T4T3M
      000000CAH   SFRSYM    DATA     BYTE      T4L
      000000CCH   SFRSYM    DATA     BYTE      T3L
      000000C9H   SFRSYM    DATA     BYTE      T4H
      000000CBH   SFRSYM    DATA     BYTE      T3H
      00000096H   SFRSYM    DATA     BYTE      USBADR
      000000E7H   SFRSYM    DATA     BYTE      IE2
      00000080H.7 SFRSYM    DATA     BIT       P07
      00000080H.5 SFRSYM    DATA     BIT       P05
      00000088H   SFRSYM    DATA     BYTE      TCON
      00000098H   SFRSYM    DATA     BYTE      SCON
      000000B8H   SFRSYM    DATA     BYTE      IP
      000000A8H   SFRSYM    DATA     BYTE      IE
L251 LINKER/LOCATER V4.66.93.0                                                        09/25/2023  21:38:02  PAGE 32


      000000F8H   SFRSYM    DATA     BYTE      P7
      000000E8H   SFRSYM    DATA     BYTE      P6
      000000C8H   SFRSYM    DATA     BYTE      P5
      000000C0H   SFRSYM    DATA     BYTE      P4
      000000B0H   SFRSYM    DATA     BYTE      P3
      000000A0H   SFRSYM    DATA     BYTE      P2
      00000090H   SFRSYM    DATA     BYTE      P1
      00000080H   SFRSYM    DATA     BYTE      P0

      00FF2514H   BLOCK     CODE     ---       LVL=0
      R5          REGSYM    ---      BYTE      encno
      00FF2516H   BLOCK     CODE     NEAR LAB  LVL=1
      WR6         REGSYM    ---      INT       tm
      ---         BLOCKEND  ---      ---       LVL=1
      00FF2514H   LINE      CODE     ---       #36
      00FF2516H   LINE      CODE     ---       #37
      00FF2516H   LINE      CODE     ---       #38
      00FF2518H   LINE      CODE     ---       #39
      00FF251CH   LINE      CODE     ---       #41
      00FF251FH   LINE      CODE     ---       #42
      00FF252DH   LINE      CODE     ---       #44
      00FF253FH   LINE      CODE     ---       #46
      00FF2542H   LINE      CODE     ---       #47
      00FF2545H   LINE      CODE     ---       #48
      00FF2548H   LINE      CODE     ---       #49
      00FF254BH   LINE      CODE     ---       #50
      00FF254CH   LINE      CODE     ---       #51
      00FF2550H   LINE      CODE     ---       #53
      00FF2553H   LINE      CODE     ---       #54
      00FF2561H   LINE      CODE     ---       #56
      00FF2573H   LINE      CODE     ---       #58
      00FF2576H   LINE      CODE     ---       #59
      00FF2579H   LINE      CODE     ---       #60
      00FF257CH   LINE      CODE     ---       #61
      00FF257FH   LINE      CODE     ---       #62
      00FF257FH   LINE      CODE     ---       #63
      00FF257FH   LINE      CODE     ---       #64
      ---         BLOCKEND  ---      ---       LVL=0

      00FF2A95H   BLOCK     CODE     ---       LVL=0
      00FF2A95H   LINE      CODE     ---       #74
      00FF2A95H   LINE      CODE     ---       #93
      00FF2A98H   LINE      CODE     ---       #94
      00FF2A9BH   LINE      CODE     ---       #95
      00FF2A9EH   LINE      CODE     ---       #97
      00FF2AA1H   LINE      CODE     ---       #98
      00FF2AA4H   LINE      CODE     ---       #99
      00FF2AA7H   LINE      CODE     ---       #100
      ---         BLOCKEND  ---      ---       LVL=0
      WR14        REGSYM    ---      INT       duty
      WR12        REGSYM    ---      INT       enc2

      ---         MODULE    ---      ---       LQ_UART
      00FF29D0H   PUBLIC    CODE     ---       SetTimer2Baudraye
      00FF2AB7H   PUBLIC    CODE     ---       UART1_int
      00FF2684H   PUBLIC    CODE     ---       UART4_int
      00FF293BH   PUBLIC    CODE     ---       UART4_config
      0001011CH   PUBLIC    XDATA    INT       RX
      0001011EH   PUBLIC    XDATA    INT       Go
      00010120H   PUBLIC    XDATA    BYTE      Uart4_Receive
      000000D0H   SFRSYM    DATA     BYTE      PSW
      000000BCH   SFRSYM    DATA     BYTE      S4CON
      00000098H.4 SFRSYM    DATA     BIT       REN
      000000BDH   SFRSYM    DATA     BYTE      S4BUF
      000000DBH   SFRSYM    DATA     BYTE      T4T3M
L251 LINKER/LOCATER V4.66.93.0                                                        09/25/2023  21:38:02  PAGE 33


      00000088H.6 SFRSYM    DATA     BIT       TR1
      000000CAH   SFRSYM    DATA     BYTE      T4L
      000000CEH   SFRSYM    DATA     BYTE      T2L
      0000008BH   SFRSYM    DATA     BYTE      TL1
      000000C9H   SFRSYM    DATA     BYTE      T4H
      000000CDH   SFRSYM    DATA     BYTE      T2H
      0000008DH   SFRSYM    DATA     BYTE      TH1
      000000A8H.3 SFRSYM    DATA     BIT       ET1
      00000096H   SFRSYM    DATA     BYTE      USBADR
      00000093H   SFRSYM    DATA     BYTE      AUXR
      000000E7H   SFRSYM    DATA     BYTE      IE2
      00000088H   SFRSYM    DATA     BYTE      TCON
      00000089H   SFRSYM    DATA     BYTE      TMOD
      00000098H   SFRSYM    DATA     BYTE      SCON
      00000099H   SFRSYM    DATA     BYTE      SBUF
      00000098H.1 SFRSYM    DATA     BIT       TI
      00000098H.0 SFRSYM    DATA     BIT       RI
      000000B8H   SFRSYM    DATA     BYTE      IP
      000000A8H.4 SFRSYM    DATA     BIT       ES
      00000095H   SFRSYM    DATA     BYTE      INTCLKO
      000000A8H   SFRSYM    DATA     BYTE      IE
      0000009BH   SFRSYM    DATA     BYTE      P_SW2
      0000009AH   SFRSYM    DATA     BYTE      P_SW1
      000000F8H   SFRSYM    DATA     BYTE      P7
      000000E8H   SFRSYM    DATA     BYTE      P6
      000000C8H   SFRSYM    DATA     BYTE      P5
      000000C0H   SFRSYM    DATA     BYTE      P4
      000000B0H   SFRSYM    DATA     BYTE      P3
      000000A0H   SFRSYM    DATA     BYTE      P2
      00000090H   SFRSYM    DATA     BYTE      P1
      00000080H   SFRSYM    DATA     BYTE      P0

      00FF2AB7H   BLOCK     CODE     ---       LVL=0
      00FF2AB7H   LINE      CODE     ---       #40
      00FF2AB9H   LINE      CODE     ---       #42
      00FF2ABCH   LINE      CODE     ---       #44
      00FF2ABEH   LINE      CODE     ---       #45
      00FF2ABEH   LINE      CODE     ---       #47
      00FF2AC1H   LINE      CODE     ---       #49
      00FF2AC3H   LINE      CODE     ---       #50
      ---         BLOCKEND  ---      ---       LVL=0

      00FF2684H   BLOCK     CODE     ---       LVL=0
      00FF268EH   BLOCK     CODE     NEAR LAB  LVL=1
      00010121H   SYMBOL    XDATA    INT       uart_receive
      ---         BLOCKEND  ---      ---       LVL=1
      00FF2684H   LINE      CODE     ---       #66
      00FF268EH   LINE      CODE     ---       #67
      00FF268EH   LINE      CODE     ---       #71
      00FF2693H   LINE      CODE     ---       #73
      00FF2696H   LINE      CODE     ---       #75
      00FF26A0H   LINE      CODE     ---       #76
      00FF26B4H   LINE      CODE     ---       #78
      00FF26BEH   LINE      CODE     ---       #79
      00FF26BEH   LINE      CODE     ---       #83
      00FF26C3H   LINE      CODE     ---       #85
      00FF26C6H   LINE      CODE     ---       #86
      ---         BLOCKEND  ---      ---       LVL=0

      00FF29D0H   BLOCK     CODE     ---       LVL=0
      DR4         REGSYM    ---      DWORD     dat
      00FF29D0H   LINE      CODE     ---       #97
      00FF29D0H   LINE      CODE     ---       #99
      00FF29D3H   LINE      CODE     ---       #100
      00FF29D6H   LINE      CODE     ---       #101
L251 LINKER/LOCATER V4.66.93.0                                                        09/25/2023  21:38:02  PAGE 34


      00FF29D9H   LINE      CODE     ---       #102
      00FF29DDH   LINE      CODE     ---       #103
      00FF29E1H   LINE      CODE     ---       #104
      00FF29E4H   LINE      CODE     ---       #105
      00FF29E7H   LINE      CODE     ---       #106
      ---         BLOCKEND  ---      ---       LVL=0
      WR6         REGSYM    ---      WORD      tmr

      00FF293BH   BLOCK     CODE     ---       LVL=0
      WR6         REGSYM    ---      WORD      tmr
      00FF293BH   LINE      CODE     ---       #147
      00FF293BH   LINE      CODE     ---       #149
      00FF2941H   LINE      CODE     ---       #151
      00FF2948H   LINE      CODE     ---       #152
      00FF294BH   LINE      CODE     ---       #153
      00FF294DH   LINE      CODE     ---       #156
      00FF2950H   LINE      CODE     ---       #157
      00FF2953H   LINE      CODE     ---       #158
      00FF2956H   LINE      CODE     ---       #159
      00FF2959H   LINE      CODE     ---       #160
      00FF2959H   LINE      CODE     ---       #161
      00FF295CH   LINE      CODE     ---       #163
      00FF295FH   LINE      CODE     ---       #164
      ---         BLOCKEND  ---      ---       LVL=0
      R11         REGSYM    ---      CHAR      ch
      R11         REGSYM    ---      CHAR      ch
      REG=3       REGSYM    ---      ---       st
      REG=3       REGSYM    ---      ---       st
      REG=3       REGSYM    ---      ---       buff

      ---         MODULE    ---      ---       ANO_DT
      0001015CH   PUBLIC    XDATA    ---       data_to_send
      000000D0H   SFRSYM    DATA     BYTE      PSW
      000000BDH   SFRSYM    DATA     BYTE      S4BUF
      00000096H   SFRSYM    DATA     BYTE      USBADR
      000000E7H   SFRSYM    DATA     BYTE      IE2
      00000088H   SFRSYM    DATA     BYTE      TCON
      00000098H   SFRSYM    DATA     BYTE      SCON
      000000B8H   SFRSYM    DATA     BYTE      IP
      000000A8H   SFRSYM    DATA     BYTE      IE
      000000F8H   SFRSYM    DATA     BYTE      P7
      000000E8H   SFRSYM    DATA     BYTE      P6
      000000C8H   SFRSYM    DATA     BYTE      P5
      000000C0H   SFRSYM    DATA     BYTE      P4
      000000B0H   SFRSYM    DATA     BYTE      P3
      000000A0H   SFRSYM    DATA     BYTE      P2
      00000090H   SFRSYM    DATA     BYTE      P1
      00000080H   SFRSYM    DATA     BYTE      P0
      REG=2       REGSYM    ---      ---       dataToSend
      WR6         REGSYM    ---      WORD      length
      R10         REGSYM    ---      BYTE      sum
      R7          REGSYM    ---      BYTE      i
      WR12        REGSYM    ---      INT       outData3
      WR14        REGSYM    ---      INT       outData4
      R11         REGSYM    ---      BYTE      sum

      ---         MODULE    ---      ---       LQ_SOFTI2C
      00FF2A44H   PUBLIC    CODE     ---       delayms
      000000D0H   SFRSYM    DATA     BYTE      PSW
      00000096H   SFRSYM    DATA     BYTE      USBADR
      000000E7H   SFRSYM    DATA     BYTE      IE2
      000000A0H.5 SFRSYM    DATA     BIT       P25
      000000A0H.4 SFRSYM    DATA     BIT       P24
      00000088H   SFRSYM    DATA     BYTE      TCON
      00000098H   SFRSYM    DATA     BYTE      SCON
L251 LINKER/LOCATER V4.66.93.0                                                        09/25/2023  21:38:02  PAGE 35


      000000B8H   SFRSYM    DATA     BYTE      IP
      000000A8H   SFRSYM    DATA     BYTE      IE
      000000F8H   SFRSYM    DATA     BYTE      P7
      000000E8H   SFRSYM    DATA     BYTE      P6
      000000C8H   SFRSYM    DATA     BYTE      P5
      000000C0H   SFRSYM    DATA     BYTE      P4
      000000B0H   SFRSYM    DATA     BYTE      P3
      000000A0H   SFRSYM    DATA     BYTE      P2
      00000090H   SFRSYM    DATA     BYTE      P1
      000000F5H   SFRSYM    DATA     BYTE      P2M1
      00000080H   SFRSYM    DATA     BYTE      P0
      000000F6H   SFRSYM    DATA     BYTE      P2M0

      00FF2A44H   BLOCK     CODE     ---       LVL=0
      WR4         REGSYM    ---      WORD      ms
      00FF2A46H   BLOCK     CODE     NEAR LAB  LVL=1
      WR6         REGSYM    ---      WORD      i
      ---         BLOCKEND  ---      ---       LVL=1
      00FF2A44H   LINE      CODE     ---       #36
      00FF2A46H   LINE      CODE     ---       #37
      00FF2A46H   LINE      CODE     ---       #39
      00FF2A46H   LINE      CODE     ---       #40
      00FF2A4AH   LINE      CODE     ---       #41
      00FF2A52H   LINE      CODE     ---       #42
      00FF2A5AH   LINE      CODE     ---       #43
      ---         BLOCKEND  ---      ---       LVL=0
      WR4         REGSYM    ---      WORD      us
      WR6         REGSYM    ---      WORD      i
      R15         REGSYM    ---      BYTE      ucErrTime
      R15         REGSYM    ---      BYTE      txd
      R14         REGSYM    ---      BYTE      t
      WR4         REGSYM    ---      WORD      len
      REG=3       REGSYM    ---      ---       dat
      WR4         REGSYM    ---      WORD      len
      REG=3       REGSYM    ---      ---       buf
      R15         REGSYM    ---      BYTE      ack
      R13         REGSYM    ---      BYTE      i
      R14         REGSYM    ---      BYTE      receive
      R15         REGSYM    ---      BYTE      I2C_Addr
      R14         REGSYM    ---      BYTE      addr
      R15         REGSYM    ---      BYTE      res
      REG=3       REGSYM    ---      ---       dat
      REG=3       REGSYM    ---      ---       dat
      R11         REGSYM    ---      BYTE      dev
      R7          REGSYM    ---      BYTE      reg
      REG=3       REGSYM    ---      ---       dat
      R11         REGSYM    ---      BYTE      dev
      R10         REGSYM    ---      BYTE      reg
      R12         REGSYM    ---      BYTE      reg
      R14         REGSYM    ---      BYTE      bitStart
      R13         REGSYM    ---      BYTE      length
      R15         REGSYM    ---      BYTE      dat
      R10         REGSYM    ---      BYTE      mask
      R13         REGSYM    ---      BYTE      dev
      R14         REGSYM    ---      BYTE      reg
      R15         REGSYM    ---      BYTE      bitNum
      R12         REGSYM    ---      BYTE      dat

      ---         MODULE    ---      ---       LQ_PID
      00FF24A3H   PUBLIC    CODE     ---       speedcontrol
      00FF2580H   PUBLIC    CODE     ---       PidInit
      00FF27A6H   PUBLIC    CODE     ---       dircontrol
      00FF26D1H   PUBLIC    CODE     ---       diranglecontrol
      0001018EH   PUBLIC    XDATA    FLOAT     dirn_p
      00010192H   PUBLIC    XDATA    INT       speed_jifen
L251 LINKER/LOCATER V4.66.93.0                                                        09/25/2023  21:38:02  PAGE 36


      00010194H   PUBLIC    XDATA    FLOAT     dir_d
      00010198H   PUBLIC    XDATA    FLOAT     dir_p
      0001019CH   PUBLIC    XDATA    FLOAT     speed_i
      000101A0H   PUBLIC    XDATA    FLOAT     speed_p
      000101A4H   PUBLIC    XDATA    FLOAT     dirn_d
      000000D0H   SFRSYM    DATA     BYTE      PSW
      00000096H   SFRSYM    DATA     BYTE      USBADR
      000000E7H   SFRSYM    DATA     BYTE      IE2
      00000088H   SFRSYM    DATA     BYTE      TCON
      00000098H   SFRSYM    DATA     BYTE      SCON
      000000B8H   SFRSYM    DATA     BYTE      IP
      000000A8H   SFRSYM    DATA     BYTE      IE
      000000F8H   SFRSYM    DATA     BYTE      P7
      000000E8H   SFRSYM    DATA     BYTE      P6
      000000C8H   SFRSYM    DATA     BYTE      P5
      000000C0H   SFRSYM    DATA     BYTE      P4
      000000B0H   SFRSYM    DATA     BYTE      P3
      000000A0H   SFRSYM    DATA     BYTE      P2
      00000090H   SFRSYM    DATA     BYTE      P1
      00000080H   SFRSYM    DATA     BYTE      P0
      DR28        REGSYM    ---      FLOAT     amt
      DR24        REGSYM    ---      FLOAT     low

      00FF2580H   BLOCK     CODE     ---       LVL=0
      REG=2       REGSYM    ---      ---       pid
      00FF2580H   LINE      CODE     ---       #65
      00FF2582H   LINE      CODE     ---       #67
      00FF258BH   LINE      CODE     ---       #68
      00FF2593H   LINE      CODE     ---       #69
      00FF259BH   LINE      CODE     ---       #70
      00FF25A3H   LINE      CODE     ---       #71
      00FF25ABH   LINE      CODE     ---       #72
      00FF25B3H   LINE      CODE     ---       #73
      00FF25BBH   LINE      CODE     ---       #74
      00FF25C3H   LINE      CODE     ---       #75
      00FF25CBH   LINE      CODE     ---       #76
      00FF25D3H   LINE      CODE     ---       #77
      00FF25DBH   LINE      CODE     ---       #78
      00FF25E3H   LINE      CODE     ---       #79
      ---         BLOCKEND  ---      ---       LVL=0
      REG=3       REGSYM    ---      ---       pid
      REG=6       REGSYM    ---      ---       pid
      DR28        REGSYM    ---      FLOAT     error

      00FF24A3H   BLOCK     CODE     ---       LVL=0
      WR6         REGSYM    ---      INT       ECPULSE
      WR4         REGSYM    ---      INT       aim_speed
      WR6         REGSYM    ---      INT       out
      WR26        REGSYM    ---      INT       Error
      00FF24A3H   LINE      CODE     ---       #145
      00FF24A3H   LINE      CODE     ---       #146
      00FF24A3H   LINE      CODE     ---       #148
      00FF24A7H   LINE      CODE     ---       #149
      00FF24B2H   LINE      CODE     ---       #150
      00FF24C8H   LINE      CODE     ---       #151
      00FF24DEH   LINE      CODE     ---       #152
      00FF2514H   LINE      CODE     ---       #153
      00FF2514H   LINE      CODE     ---       #154
      ---         BLOCKEND  ---      ---       LVL=0

      00FF27A6H   BLOCK     CODE     ---       LVL=0
      WR26        REGSYM    ---      INT       chazhi
      00FF27A8H   BLOCK     CODE     NEAR LAB  LVL=1
      WR6         REGSYM    ---      INT       out_dw
      000101A8H   SYMBOL    XDATA    INT       last_chazhi
L251 LINKER/LOCATER V4.66.93.0                                                        09/25/2023  21:38:02  PAGE 37


      ---         BLOCKEND  ---      ---       LVL=1
      00FF27A6H   LINE      CODE     ---       #155
      00FF27A8H   LINE      CODE     ---       #156
      00FF27A8H   LINE      CODE     ---       #159
      00FF27E2H   LINE      CODE     ---       #160
      00FF27E8H   LINE      CODE     ---       #161
      00FF27E8H   LINE      CODE     ---       #162
      ---         BLOCKEND  ---      ---       LVL=0

      00FF26D1H   BLOCK     CODE     ---       LVL=0
      WR6         REGSYM    ---      INT       out_dw
      WR6         REGSYM    ---      INT       out_dn
      WR30        REGSYM    ---      INT       error
      000101AAH   SYMBOL    XDATA    INT       last_error
      00FF26D1H   LINE      CODE     ---       #163
      00FF26D1H   LINE      CODE     ---       #164
      00FF26D1H   LINE      CODE     ---       #167
      00FF26DBH   LINE      CODE     ---       #168
      00FF2715H   LINE      CODE     ---       #169
      00FF271BH   LINE      CODE     ---       #170
      00FF271BH   LINE      CODE     ---       #171
      ---         BLOCKEND  ---      ---       LVL=0

      ---         MODULE    ---      ---       LQ_dianci
      00FF0007H   PUBLIC    CODE     ---       Discern3
      00FF1DD3H   PUBLIC    CODE     ---       Discern4
      00FF1372H   PUBLIC    CODE     ---       timer0_int
      00FF157FH   PUBLIC    CODE     ---       InductorNormal
      00FF1AF5H   PUBLIC    CODE     ---       OLED_show
      00FF0008H   PUBLIC    CODE     ---       Discern
      00FF0A5BH   PUBLIC    CODE     ---       Control
      00FF1C89H   PUBLIC    CODE     ---       sancha
      000100D4H   PUBLIC    XDATA    LONG      TempAngle
      000100D8H   PUBLIC    XDATA    INT       leftV
      000100DAH   PUBLIC    XDATA    INT       Round
      000100DCH   PUBLIC    XDATA    INT       Out_s
      000100DEH   PUBLIC    XDATA    INT       Fork
      000100E0H   PUBLIC    XDATA    INT       huandao1
      000100E2H   PUBLIC    XDATA    INT       Detection
      000100E4H   PUBLIC    XDATA    INT       Round_Out
      000100E6H   PUBLIC    XDATA    INT       count
      000100E8H   PUBLIC    XDATA    INT       time
      000100EAH   PUBLIC    XDATA    INT       Target_Speed
      000100ECH   PUBLIC    XDATA    INT       Fork_L
      000100EEH   PUBLIC    XDATA    INT       chazhi_huandao
      000100F0H   PUBLIC    XDATA    INT       ECPULSE1
      000100F2H   PUBLIC    XDATA    INT       Fork_R
      000100F4H   PUBLIC    XDATA    INT       ECPULSE2
      000100F6H   PUBLIC    XDATA    LONG      tly_jifen
      000100FAH   PUBLIC    XDATA    INT       Rounding
      000100FCH   PUBLIC    XDATA    INT       chazhi_sancha
      000100FEH   PUBLIC    XDATA    INT       zhongjian
      00010100H   PUBLIC    XDATA    INT       Forking
      00010102H   PUBLIC    XDATA    INT       Forkchu
      00010104H   PUBLIC    XDATA    LONG      bmq_juli
      00010108H   PUBLIC    XDATA    INT       huandao
      0001010AH   PUBLIC    XDATA    INT       yxy
      0001010CH   PUBLIC    XDATA    INT       Out_dn
      0001010EH   PUBLIC    XDATA    INT       MotorDuty1
      00010110H   PUBLIC    XDATA    INT       MotorDuty2
      00010112H   PUBLIC    XDATA    INT       rightP
      00010114H   PUBLIC    XDATA    INT       Out_dw
      00010116H   PUBLIC    XDATA    INT       rightV
      00010118H   PUBLIC    XDATA    INT       hdcha
      0001011AH   PUBLIC    XDATA    INT       leftP
L251 LINKER/LOCATER V4.66.93.0                                                        09/25/2023  21:38:02  PAGE 38


      00000008H   PUBLIC    DATA     ---       diangan
      000000D0H   SFRSYM    DATA     BYTE      PSW
      00000096H   SFRSYM    DATA     BYTE      USBADR
      000000E7H   SFRSYM    DATA     BYTE      IE2
      000000B0H.3 SFRSYM    DATA     BIT       P33
      00000088H   SFRSYM    DATA     BYTE      TCON
      000000B0H.2 SFRSYM    DATA     BIT       P32
      00000098H   SFRSYM    DATA     BYTE      SCON
      000000B8H   SFRSYM    DATA     BYTE      IP
      000000A8H   SFRSYM    DATA     BYTE      IE
      000000F8H   SFRSYM    DATA     BYTE      P7
      000000E8H   SFRSYM    DATA     BYTE      P6
      000000C8H   SFRSYM    DATA     BYTE      P5
      000000C0H   SFRSYM    DATA     BYTE      P4
      000000B0H   SFRSYM    DATA     BYTE      P3
      000000A0H   SFRSYM    DATA     BYTE      P2
      00000090H   SFRSYM    DATA     BYTE      P1
      00000080H   SFRSYM    DATA     BYTE      P0

      00FF1372H   BLOCK     CODE     ---       LVL=0
      00FF1372H   LINE      CODE     ---       #60
      00FF1388H   LINE      CODE     ---       #62
      00FF13E3H   LINE      CODE     ---       #65
      00FF13EEH   LINE      CODE     ---       #66
      00FF13F9H   LINE      CODE     ---       #68
      00FF13FCH   LINE      CODE     ---       #70
      00FF1408H   LINE      CODE     ---       #72
      00FF1412H   LINE      CODE     ---       #73
      00FF141AH   LINE      CODE     ---       #74
      00FF1420H   LINE      CODE     ---       #75
      00FF1426H   LINE      CODE     ---       #76
      00FF1430H   LINE      CODE     ---       #77
      00FF1430H   LINE      CODE     ---       #78
      00FF143CH   LINE      CODE     ---       #80
      00FF1447H   LINE      CODE     ---       #81
      00FF1447H   LINE      CODE     ---       #83
      00FF144AH   LINE      CODE     ---       #86
      00FF147EH   LINE      CODE     ---       #88
      00FF148AH   LINE      CODE     ---       #90
      00FF149AH   LINE      CODE     ---       #91
      00FF14A2H   LINE      CODE     ---       #92
      00FF14A2H   LINE      CODE     ---       #95
      00FF14B1H   LINE      CODE     ---       #97
      00FF14CDH   LINE      CODE     ---       #99
      00FF14DDH   LINE      CODE     ---       #100
      00FF14DDH   LINE      CODE     ---       #102
      00FF14F5H   LINE      CODE     ---       #104
      00FF14FFH   LINE      CODE     ---       #105
      00FF14FFH   LINE      CODE     ---       #109
      00FF1523H   LINE      CODE     ---       #114
      00FF1533H   LINE      CODE     ---       #115
      00FF153BH   LINE      CODE     ---       #124
      00FF154BH   LINE      CODE     ---       #126
      00FF1553H   LINE      CODE     ---       #127
      00FF1559H   LINE      CODE     ---       #128
      00FF1559H   LINE      CODE     ---       #130
      00FF1568H   LINE      CODE     ---       #131
      ---         BLOCKEND  ---      ---       LVL=0

      00FF157FH   BLOCK     CODE     ---       LVL=0
      00FF157FH   LINE      CODE     ---       #142
      00FF157FH   LINE      CODE     ---       #144
      00FF158AH   LINE      CODE     ---       #145
      00FF1595H   LINE      CODE     ---       #146
      00FF15A0H   LINE      CODE     ---       #147
L251 LINKER/LOCATER V4.66.93.0                                                        09/25/2023  21:38:02  PAGE 39


      00FF15ABH   LINE      CODE     ---       #148
      00FF15B7H   LINE      CODE     ---       #150
      00FF15DDH   LINE      CODE     ---       #151
      00FF1606H   LINE      CODE     ---       #152
      00FF1625H   LINE      CODE     ---       #153
      00FF1645H   LINE      CODE     ---       #154
      00FF1663H   LINE      CODE     ---       #156
      00FF1679H   LINE      CODE     ---       #157
      00FF1697H   LINE      CODE     ---       #158
      00FF16B3H   LINE      CODE     ---       #159
      00FF16D1H   LINE      CODE     ---       #160
      00FF16EDH   LINE      CODE     ---       #161
      00FF170BH   LINE      CODE     ---       #162
      00FF1727H   LINE      CODE     ---       #163
      00FF1745H   LINE      CODE     ---       #164
      00FF1761H   LINE      CODE     ---       #165
      00FF177FH   LINE      CODE     ---       #166
      ---         BLOCKEND  ---      ---       LVL=0

      00FF0A5BH   BLOCK     CODE     ---       LVL=0
      00FF0A5DH   BLOCK     CODE     NEAR LAB  LVL=1
      ---         BLOCKEND  ---      ---       LVL=1
      00FF0A5BH   LINE      CODE     ---       #168
      00FF0A5DH   LINE      CODE     ---       #169
      00FF0A5DH   LINE      CODE     ---       #171
      00FF0A69H   LINE      CODE     ---       #173
      00FF0A89H   LINE      CODE     ---       #174
      00FF0A92H   LINE      CODE     ---       #176
      00FF0A9AH   LINE      CODE     ---       #177
      00FF0A9AH   LINE      CODE     ---       #182
      00FF0AACH   LINE      CODE     ---       #184
      00FF0AB8H   LINE      CODE     ---       #186
      00FF0ABBH   LINE      CODE     ---       #187
      00FF0ABEH   LINE      CODE     ---       #188
      00FF0ACAH   LINE      CODE     ---       #190
      00FF0ACDH   LINE      CODE     ---       #191
      00FF0AD0H   LINE      CODE     ---       #195
      00FF0B0FH   LINE      CODE     ---       #197
      00FF0B19H   LINE      CODE     ---       #198
      00FF0B22H   LINE      CODE     ---       #199
      00FF0B24H   LINE      CODE     ---       #200
      00FF0B40H   LINE      CODE     ---       #202
      00FF0B4AH   LINE      CODE     ---       #203
      00FF0B4AH   LINE      CODE     ---       #206
      00FF0B83H   LINE      CODE     ---       #208
      00FF0B8DH   LINE      CODE     ---       #209
      00FF0B96H   LINE      CODE     ---       #210
      00FF0B96H   LINE      CODE     ---       #212
      00FF0BA2H   LINE      CODE     ---       #214
      00FF0BACH   LINE      CODE     ---       #215
      00FF0BACH   LINE      CODE     ---       #216
      00FF0BB0H   LINE      CODE     ---       #218
      00FF0BC6H   LINE      CODE     ---       #220
      00FF0BD0H   LINE      CODE     ---       #221
      00FF0BD0H   LINE      CODE     ---       #222
      00FF0BDEH   LINE      CODE     ---       #224
      00FF0BE8H   LINE      CODE     ---       #225
      00FF0BE8H   LINE      CODE     ---       #227
      00FF0BE8H   LINE      CODE     ---       #228
      00FF0BF4H   LINE      CODE     ---       #230
      00FF0C1DH   LINE      CODE     ---       #231
      00FF0C1DH   LINE      CODE     ---       #232
      00FF0C33H   LINE      CODE     ---       #234
      00FF0C50H   LINE      CODE     ---       #235
      00FF0C50H   LINE      CODE     ---       #236
L251 LINKER/LOCATER V4.66.93.0                                                        09/25/2023  21:38:02  PAGE 40


      00FF0C5CH   LINE      CODE     ---       #238
      00FF0C79H   LINE      CODE     ---       #239
      00FF0C79H   LINE      CODE     ---       #321
      00FF0C8EH   LINE      CODE     ---       #323
      00FF0C9AH   LINE      CODE     ---       #325
      00FF0C9DH   LINE      CODE     ---       #326
      00FF0CA0H   LINE      CODE     ---       #327
      00FF0CACH   LINE      CODE     ---       #329
      00FF0CAFH   LINE      CODE     ---       #330
      00FF0CB2H   LINE      CODE     ---       #334
      00FF0CF4H   LINE      CODE     ---       #336
      00FF0CFEH   LINE      CODE     ---       #337
      00FF0CFEH   LINE      CODE     ---       #338
      00FF0D0AH   LINE      CODE     ---       #340
      00FF0D16H   LINE      CODE     ---       #341
      00FF0D16H   LINE      CODE     ---       #342
      00FF0D28H   LINE      CODE     ---       #344
      00FF0D32H   LINE      CODE     ---       #345
      00FF0D32H   LINE      CODE     ---       #346
      00FF0D4EH   LINE      CODE     ---       #348
      00FF0D58H   LINE      CODE     ---       #349
      00FF0D61H   LINE      CODE     ---       #350
      00FF0D6BH   LINE      CODE     ---       #351
      00FF0D77H   LINE      CODE     ---       #352
      00FF0D77H   LINE      CODE     ---       #355
      00FF0DB0H   LINE      CODE     ---       #357
      00FF0DBAH   LINE      CODE     ---       #358
      00FF0DC3H   LINE      CODE     ---       #359
      00FF0DC3H   LINE      CODE     ---       #361
      00FF0DD7H   LINE      CODE     ---       #363
      00FF0DEFH   LINE      CODE     ---       #365
      00FF0DEFH   LINE      CODE     ---       #366
      00FF0DF1H   LINE      CODE     ---       #367
      00FF0E03H   LINE      CODE     ---       #369
      00FF0E0DH   LINE      CODE     ---       #370
      00FF0E0FH   LINE      CODE     ---       #371
      00FF0E2DH   LINE      CODE     ---       #373
      00FF0E37H   LINE      CODE     ---       #374
      00FF0E37H   LINE      CODE     ---       #376
      00FF0E37H   LINE      CODE     ---       #377
      00FF0E43H   LINE      CODE     ---       #379
      00FF0E6CH   LINE      CODE     ---       #380
      00FF0E6CH   LINE      CODE     ---       #381
      00FF0E82H   LINE      CODE     ---       #383
      00FF0E9FH   LINE      CODE     ---       #384
      00FF0E9FH   LINE      CODE     ---       #385
      00FF0EB5H   LINE      CODE     ---       #387
      00FF0EDEH   LINE      CODE     ---       #388
      00FF0EFBH   LINE      CODE     ---       #389
      00FF0EFBH   LINE      CODE     ---       #394
      00FF0F10H   LINE      CODE     ---       #396
      00FF0F1CH   LINE      CODE     ---       #398
      00FF0F1FH   LINE      CODE     ---       #399
      00FF0F22H   LINE      CODE     ---       #400
      00FF0F2EH   LINE      CODE     ---       #402
      00FF0F31H   LINE      CODE     ---       #403
      00FF0F34H   LINE      CODE     ---       #407
      00FF0F76H   LINE      CODE     ---       #409
      00FF0F80H   LINE      CODE     ---       #410
      00FF0F80H   LINE      CODE     ---       #411
      00FF0F8CH   LINE      CODE     ---       #413
      00FF0F98H   LINE      CODE     ---       #414
      00FF0F98H   LINE      CODE     ---       #415
      00FF0FAAH   LINE      CODE     ---       #417
      00FF0FB4H   LINE      CODE     ---       #418
L251 LINKER/LOCATER V4.66.93.0                                                        09/25/2023  21:38:02  PAGE 41


      00FF0FB4H   LINE      CODE     ---       #419
      00FF0FD0H   LINE      CODE     ---       #421
      00FF0FDAH   LINE      CODE     ---       #422
      00FF0FE3H   LINE      CODE     ---       #423
      00FF0FEDH   LINE      CODE     ---       #424
      00FF0FF9H   LINE      CODE     ---       #425
      00FF0FF9H   LINE      CODE     ---       #428
      00FF1032H   LINE      CODE     ---       #430
      00FF103CH   LINE      CODE     ---       #431
      00FF1045H   LINE      CODE     ---       #432
      00FF1045H   LINE      CODE     ---       #434
      00FF105CH   LINE      CODE     ---       #436
      00FF1068H   LINE      CODE     ---       #438
      00FF1072H   LINE      CODE     ---       #439
      00FF1072H   LINE      CODE     ---       #440
      00FF1076H   LINE      CODE     ---       #442
      00FF108EH   LINE      CODE     ---       #444
      00FF108EH   LINE      CODE     ---       #445
      00FF1090H   LINE      CODE     ---       #446
      00FF10A2H   LINE      CODE     ---       #448
      00FF10ACH   LINE      CODE     ---       #449
      00FF10AEH   LINE      CODE     ---       #450
      00FF10CCH   LINE      CODE     ---       #452
      00FF10D6H   LINE      CODE     ---       #453
      00FF10D6H   LINE      CODE     ---       #455
      00FF10D6H   LINE      CODE     ---       #456
      00FF10D6H   LINE      CODE     ---       #457
      00FF10E2H   LINE      CODE     ---       #459
      00FF110BH   LINE      CODE     ---       #460
      00FF110BH   LINE      CODE     ---       #461
      00FF1121H   LINE      CODE     ---       #463
      00FF113EH   LINE      CODE     ---       #464
      00FF113EH   LINE      CODE     ---       #465
      00FF1154H   LINE      CODE     ---       #467
      00FF117DH   LINE      CODE     ---       #468
      00FF119AH   LINE      CODE     ---       #469
      00FF119AH   LINE      CODE     ---       #474
      00FF11B2H   LINE      CODE     ---       #476
      00FF11BCH   LINE      CODE     ---       #477
      00FF11C8H   LINE      CODE     ---       #479
      00FF11CBH   LINE      CODE     ---       #480
      00FF11CEH   LINE      CODE     ---       #481
      00FF11DAH   LINE      CODE     ---       #483
      00FF11DDH   LINE      CODE     ---       #484
      00FF11E0H   LINE      CODE     ---       #488
      00FF121FH   LINE      CODE     ---       #490
      00FF1229H   LINE      CODE     ---       #491
      00FF1232H   LINE      CODE     ---       #492
      00FF1234H   LINE      CODE     ---       #493
      00FF1250H   LINE      CODE     ---       #495
      00FF125AH   LINE      CODE     ---       #496
      00FF125AH   LINE      CODE     ---       #499
      00FF1293H   LINE      CODE     ---       #501
      00FF129DH   LINE      CODE     ---       #502
      00FF12A6H   LINE      CODE     ---       #503
      00FF12A6H   LINE      CODE     ---       #505
      00FF12BCH   LINE      CODE     ---       #507
      00FF12C6H   LINE      CODE     ---       #508
      00FF12C6H   LINE      CODE     ---       #509
      00FF12D4H   LINE      CODE     ---       #511
      00FF12DEH   LINE      CODE     ---       #512
      00FF12DEH   LINE      CODE     ---       #514
      00FF12EAH   LINE      CODE     ---       #516
      00FF1313H   LINE      CODE     ---       #517
      00FF1313H   LINE      CODE     ---       #518
L251 LINKER/LOCATER V4.66.93.0                                                        09/25/2023  21:38:02  PAGE 42


      00FF1329H   LINE      CODE     ---       #520
      00FF1346H   LINE      CODE     ---       #521
      00FF1346H   LINE      CODE     ---       #522
      00FF1352H   LINE      CODE     ---       #524
      00FF136FH   LINE      CODE     ---       #525
      00FF136FH   LINE      CODE     ---       #527
      ---         BLOCKEND  ---      ---       LVL=0

      00FF1C89H   BLOCK     CODE     ---       LVL=0
      00FF1C89H   LINE      CODE     ---       #529
      00FF1C89H   LINE      CODE     ---       #531
      00FF1CBDH   LINE      CODE     ---       #533
      00FF1CCAH   LINE      CODE     ---       #534
      00FF1CDEH   LINE      CODE     ---       #535
      00FF1CF2H   LINE      CODE     ---       #536
      00FF1CFCH   LINE      CODE     ---       #537
      00FF1CFDH   LINE      CODE     ---       #538
      00FF1D30H   LINE      CODE     ---       #540
      00FF1D3AH   LINE      CODE     ---       #541
      00FF1D5AH   LINE      CODE     ---       #542
      00FF1D66H   LINE      CODE     ---       #544
      00FF1D70H   LINE      CODE     ---       #545
      00FF1D99H   LINE      CODE     ---       #546
      00FF1D99H   LINE      CODE     ---       #547
      00FF1DA9H   LINE      CODE     ---       #549
      00FF1DBFH   LINE      CODE     ---       #550
      00FF1DC6H   LINE      CODE     ---       #551
      00FF1DD2H   LINE      CODE     ---       #552
      00FF1DD2H   LINE      CODE     ---       #604
      ---         BLOCKEND  ---      ---       LVL=0

      00FF0008H   BLOCK     CODE     ---       LVL=0
      00FF0008H   LINE      CODE     ---       #632
      00FF0008H   LINE      CODE     ---       #635
      ---         BLOCKEND  ---      ---       LVL=0

      00FF0007H   BLOCK     CODE     ---       LVL=0
      00FF0007H   LINE      CODE     ---       #636
      00FF0007H   LINE      CODE     ---       #639
      ---         BLOCKEND  ---      ---       LVL=0

      00FF1DD3H   BLOCK     CODE     ---       LVL=0
      00FF1DD3H   LINE      CODE     ---       #640
      00FF1DD3H   LINE      CODE     ---       #642
      00FF1DFDH   LINE      CODE     ---       #644
      00FF1E0AH   LINE      CODE     ---       #645
      00FF1E1EH   LINE      CODE     ---       #646
      00FF1E32H   LINE      CODE     ---       #647
      00FF1E32H   LINE      CODE     ---       #648
      00FF1E50H   LINE      CODE     ---       #650
      00FF1E5AH   LINE      CODE     ---       #651
      00FF1E7AH   LINE      CODE     ---       #652
      00FF1E7AH   LINE      CODE     ---       #653
      00FF1E8CH   LINE      CODE     ---       #655
      00FF1E98H   LINE      CODE     ---       #656
      00FF1EA2H   LINE      CODE     ---       #657
      00FF1EA2H   LINE      CODE     ---       #658
      00FF1EBEH   LINE      CODE     ---       #660
      00FF1EDEH   LINE      CODE     ---       #661
      00FF1EE6H   LINE      CODE     ---       #662
      00FF1EECH   LINE      CODE     ---       #663
      00FF1EF2H   LINE      CODE     ---       #664
      00FF1EF8H   LINE      CODE     ---       #665
      00FF1F04H   LINE      CODE     ---       #666
      00FF1F0EH   LINE      CODE     ---       #667
L251 LINKER/LOCATER V4.66.93.0                                                        09/25/2023  21:38:02  PAGE 43


      00FF1F19H   LINE      CODE     ---       #668
      ---         BLOCKEND  ---      ---       LVL=0

      00FF1AF5H   BLOCK     CODE     ---       LVL=0
      0001008EH   SYMBOL    XDATA    ---       txt
      00FF1AF5H   LINE      CODE     ---       #679
      00FF1AF5H   LINE      CODE     ---       #680
      00FF1AF5H   LINE      CODE     ---       #682
      00FF1B20H   LINE      CODE     ---       #683
      00FF1B2EH   LINE      CODE     ---       #684
      00FF1B53H   LINE      CODE     ---       #685
      00FF1B62H   LINE      CODE     ---       #686
      00FF1B92H   LINE      CODE     ---       #687
      00FF1BA1H   LINE      CODE     ---       #688
      00FF1BCCH   LINE      CODE     ---       #689
      00FF1BDBH   LINE      CODE     ---       #690
      00FF1C06H   LINE      CODE     ---       #691
      00FF1C15H   LINE      CODE     ---       #692
      00FF1C40H   LINE      CODE     ---       #693
      00FF1C4FH   LINE      CODE     ---       #696
      00FF1C7AH   LINE      CODE     ---       #697
      ---         BLOCKEND  ---      ---       LVL=0

      ---         MODULE    ---      ---       ?C?FPADD
      00FF00ACH   PUBLIC    CODE     ---       ?C?FPADD
      00FF00A9H   PUBLIC    CODE     ---       ?C?FPSUB

      ---         MODULE    ---      ---       ?C?FPMUL
      00FF0164H   PUBLIC    CODE     ---       ?C?FPMUL

      ---         MODULE    ---      ---       ?C?FPDIV
      00FF0204H   PUBLIC    CODE     ---       ?C?FPDIV

      ---         MODULE    ---      ---       ?C?FPCMP
      00FF0287H   PUBLIC    CODE     ---       ?C?FPCMP
      00FF0285H   PUBLIC    CODE     ---       ?C?FPCMP3

      ---         MODULE    ---      ---       ?C?FPNEG
      00FF02CBH   PUBLIC    CODE     ---       ?C?FPNEG

      ---         MODULE    ---      ---       ?C?FCAST
      00FF02E3H   PUBLIC    CODE     NEAR LAB  ?C?FCASTC
      00FF02DEH   PUBLIC    CODE     NEAR LAB  ?C?FCASTI
      00FF02D9H   PUBLIC    CODE     NEAR LAB  ?C?FCASTL

      ---         MODULE    ---      ---       ?C?CASTF
      00FF0316H   PUBLIC    CODE     NEAR LAB  ?C?CASTF

      ---         MODULE    ---      ---       SPRINTF
      000100D4H   PUBLIC    XDATA    ---       ?SPRINTF?BYTE
      00FF0353H   PUBLIC    CODE     NEAR LAB  SPRINTF

      ---         MODULE    ---      ---       ?C?FPGETOPN
      00FF0373H   PUBLIC    CODE     ---       ?C?FPGETOPN2
      00FF03B0H   PUBLIC    CODE     ---       ?C?FPNANRESULT
      00FF03B8H   PUBLIC    CODE     ---       ?C?FPOVERFLOW
      00FF038CH   PUBLIC    CODE     ---       ?C?FPRESULT
      00FF03A2H   PUBLIC    CODE     ---       ?C?FPRESULT2
      00FF03B5H   PUBLIC    CODE     ---       ?C?FPUNDERFLOW

      ---         MODULE    ---      ---       ?C?PRNFMT
      00FF03F1H   PUBLIC    CODE     ---       ?C?PRNFMT

      ---         MODULE    ---      ---       ?C?FPCONVERT
      00FF080EH   PUBLIC    CODE     ---       ?C?FPCONVERT
L251 LINKER/LOCATER V4.66.93.0                                                        09/25/2023  21:38:02  PAGE 44


      00FF08C6H   PUBLIC    CODE     ---       ?C?FPROUND

      ---         MODULE    ---      ---       ?C?FTNPWR
      00FF0939H   PUBLIC    CODE     ---       ?C?FTNPWR

      ---         MODULE    ---      ---       ?C_START
      00FF0000H   PUBLIC    CODE     ---       ?C?STARTUP
      00FF0000H   PUBLIC    CODE     ---       ?C_STARTUP

      ---         MODULE    ---      ---       ?C?INITHDATA
      00FF272FH   PUBLIC    CODE     ---       ?C?INITHDATA

      ---         MODULE    ---      ---       ?C?SIDIV
      00FF0970H   PUBLIC    CODE     ---       ?C?SIDIV

      ---         MODULE    ---      ---       ?C?LIMUL
      00FF09A2H   PUBLIC    CODE     ---       ?C?LIMUL

      ---         MODULE    ---      ---       ?C?ULDIV
      00FF09ADH   PUBLIC    CODE     NEAR LAB  ?C?ULDIV
      00FF09ABH   PUBLIC    CODE     NEAR LAB  ?C?ULIDIV

      ---         MODULE    ---      ---       ?C?SLDIV
      00FF09FEH   PUBLIC    CODE     NEAR LAB  ?C?SLDIV

      ---         MODULE    ---      ---       ?C?BMOVEPP
      00FF0A34H   PUBLIC    CODE     ---       ?C?BMOVEPP
      00FF0A32H   PUBLIC    CODE     ---       ?C?BMOVEPP8

      ---         MODULE    ---      ---       ?C?INITHDATA_END
      00FF3AE9H   PUBLIC    HCONST   WORD      ?C?INITHDATA_END

Program Size: data=18.0 edata+hdata=256 xdata=459 const=4615 code=10929
L251 RUN COMPLETE.  0 WARNING(S),  0 ERROR(S)
